Archive member included to satisfy reference by file (symbol)

/usr/lib/gcc/avr/4.9.2/avr5/libgcc.a(_mulsi3.o)
                              .build/obj_doro67_multi_taylon/quantum/backlight/backlight_avr.o (__mulsi3)
/usr/lib/gcc/avr/4.9.2/avr5/libgcc.a(_udivmodhi4.o)
                              .build/obj_doro67_multi_taylon/quantum/backlight/backlight_avr.o (__udivmodhi4)
/usr/lib/gcc/avr/4.9.2/avr5/libgcc.a(_divmodhi4.o)
                              .build/obj_doro67_multi_taylon/common/mousekey.o (__divmodhi4)
/usr/lib/gcc/avr/4.9.2/avr5/libgcc.a(_udivmodsi4.o)
                              .build/obj_doro67_multi_taylon/quantum/backlight/backlight_avr.o (__udivmodsi4)
/usr/lib/gcc/avr/4.9.2/avr5/libgcc.a(_exit.o)
                              /usr/lib/gcc/avr/4.9.2/../../../avr/lib/avr5/crtatmega32u4.o (exit)
/usr/lib/gcc/avr/4.9.2/avr5/libgcc.a(_tablejump2.o)
                              .build/obj_doro67_multi_taylon/common/action.o (__tablejump2__)
/usr/lib/gcc/avr/4.9.2/avr5/libgcc.a(_copy_data.o)
                              .build/obj_doro67_multi_taylon/keyboards/doro67/multi/keymaps/taylon/keymap.o (__do_copy_data)
/usr/lib/gcc/avr/4.9.2/avr5/libgcc.a(_clear_bss.o)
                              .build/obj_doro67_multi_taylon/quantum/quantum.o (__do_clear_bss)
/usr/lib/gcc/avr/4.9.2/avr5/libgcc.a(_umulhisi3.o)
                              .build/obj_doro67_multi_taylon/quantum/backlight/backlight_avr.o (__umulhisi3)
/usr/lib/gcc/avr/4.9.2/avr5/libgcc.a(_muluhisi3.o)
                              /usr/lib/gcc/avr/4.9.2/avr5/libgcc.a(_mulsi3.o) (__muluhisi3)
/usr/lib/gcc/avr/4.9.2/../../../avr/lib/avr5/libatmega32u4.a(eerd_byte.o)
                              .build/obj_doro67_multi_taylon/common/eeconfig.o (eeprom_read_byte)
/usr/lib/gcc/avr/4.9.2/../../../avr/lib/avr5/libatmega32u4.a(eerd_dword.o)
                              .build/obj_doro67_multi_taylon/common/eeconfig.o (eeprom_read_dword)
/usr/lib/gcc/avr/4.9.2/../../../avr/lib/avr5/libatmega32u4.a(eerd_word.o)
                              .build/obj_doro67_multi_taylon/common/eeconfig.o (eeprom_read_word)
/usr/lib/gcc/avr/4.9.2/../../../avr/lib/avr5/libatmega32u4.a(eeupd_byte.o)
                              .build/obj_doro67_multi_taylon/common/eeconfig.o (eeprom_update_byte)
/usr/lib/gcc/avr/4.9.2/../../../avr/lib/avr5/libatmega32u4.a(eeupd_dword.o)
                              .build/obj_doro67_multi_taylon/common/eeconfig.o (eeprom_update_dword)
/usr/lib/gcc/avr/4.9.2/../../../avr/lib/avr5/libatmega32u4.a(eeupd_word.o)
                              .build/obj_doro67_multi_taylon/common/eeconfig.o (eeprom_update_word)
/usr/lib/gcc/avr/4.9.2/../../../avr/lib/avr5/libatmega32u4.a(eerd_block.o)
                              /usr/lib/gcc/avr/4.9.2/../../../avr/lib/avr5/libatmega32u4.a(eerd_dword.o) (eeprom_read_blraw)

Allocating common symbols
Common symbol       size              file

USB_IsInitialized   0x1               .build/obj_doro67_multi_taylon/lib/lufa/LUFA/Drivers/USB/Core/USBTask.o
keymap_config       0x2               .build/obj_doro67_multi_taylon/common/magic.o
backlight_config    0x1               .build/obj_doro67_multi_taylon/quantum/backlight/backlight.o
USB_DeviceState     0x1               .build/obj_doro67_multi_taylon/lib/lufa/LUFA/Drivers/USB/Core/USBTask.o
USB_Device_ConfigurationNumber
                    0x1               .build/obj_doro67_multi_taylon/lib/lufa/LUFA/Drivers/USB/Core/DeviceStandardReq.o
USB_Device_CurrentlySelfPowered
                    0x1               .build/obj_doro67_multi_taylon/lib/lufa/LUFA/Drivers/USB/Core/DeviceStandardReq.o
USB_ControlRequest  0x8               .build/obj_doro67_multi_taylon/lib/lufa/LUFA/Drivers/USB/Core/USBTask.o
tp_buttons          0x2               .build/obj_doro67_multi_taylon/common/action.o
USB_Device_RemoteWakeupEnabled
                    0x1               .build/obj_doro67_multi_taylon/lib/lufa/LUFA/Drivers/USB/Core/DeviceStandardReq.o
timer_count         0x4               .build/obj_doro67_multi_taylon/common/avr/timer.o

Discarded input sections

 .data          0x0000000000000000        0x0 /usr/lib/gcc/avr/4.9.2/../../../avr/lib/avr5/crtatmega32u4.o
 .bss           0x0000000000000000        0x0 /usr/lib/gcc/avr/4.9.2/../../../avr/lib/avr5/crtatmega32u4.o
 .text          0x0000000000000000        0x0 .build/obj_doro67_multi_taylon/keyboards/doro67/multi/multi.o
 .data          0x0000000000000000        0x0 .build/obj_doro67_multi_taylon/keyboards/doro67/multi/multi.o
 .bss           0x0000000000000000        0x0 .build/obj_doro67_multi_taylon/keyboards/doro67/multi/multi.o
 .text          0x0000000000000000        0x0 .build/obj_doro67_multi_taylon/keyboards/doro67/multi/keymaps/taylon/keymap.o
 .data          0x0000000000000000        0x0 .build/obj_doro67_multi_taylon/keyboards/doro67/multi/keymaps/taylon/keymap.o
 .bss           0x0000000000000000        0x0 .build/obj_doro67_multi_taylon/keyboards/doro67/multi/keymaps/taylon/keymap.o
 .text          0x0000000000000000        0x0 .build/obj_doro67_multi_taylon/quantum/quantum.o
 .data          0x0000000000000000        0x0 .build/obj_doro67_multi_taylon/quantum/quantum.o
 .bss           0x0000000000000000        0x0 .build/obj_doro67_multi_taylon/quantum/quantum.o
 .text.rgblight_toggle
                0x0000000000000000        0x2 .build/obj_doro67_multi_taylon/quantum/quantum.o
 .text.rgblight_step
                0x0000000000000000        0x2 .build/obj_doro67_multi_taylon/quantum/quantum.o
 .text.rgblight_step_reverse
                0x0000000000000000        0x2 .build/obj_doro67_multi_taylon/quantum/quantum.o
 .text.rgblight_increase_hue
                0x0000000000000000        0x2 .build/obj_doro67_multi_taylon/quantum/quantum.o
 .text.rgblight_decrease_hue
                0x0000000000000000        0x2 .build/obj_doro67_multi_taylon/quantum/quantum.o
 .text.rgblight_increase_sat
                0x0000000000000000        0x2 .build/obj_doro67_multi_taylon/quantum/quantum.o
 .text.rgblight_decrease_sat
                0x0000000000000000        0x2 .build/obj_doro67_multi_taylon/quantum/quantum.o
 .text.rgblight_increase_val
                0x0000000000000000        0x2 .build/obj_doro67_multi_taylon/quantum/quantum.o
 .text.rgblight_decrease_val
                0x0000000000000000        0x2 .build/obj_doro67_multi_taylon/quantum/quantum.o
 .text.rgblight_increase_speed
                0x0000000000000000        0x2 .build/obj_doro67_multi_taylon/quantum/quantum.o
 .text.rgblight_decrease_speed
                0x0000000000000000        0x2 .build/obj_doro67_multi_taylon/quantum/quantum.o
 .text.tap_code16
                0x0000000000000000       0x14 .build/obj_doro67_multi_taylon/quantum/quantum.o
 .text.process_record_kb
                0x0000000000000000        0x4 .build/obj_doro67_multi_taylon/quantum/quantum.o
 .text.send_char
                0x0000000000000000       0x6e .build/obj_doro67_multi_taylon/quantum/quantum.o
 .text.send_string_with_delay
                0x0000000000000000       0x6c .build/obj_doro67_multi_taylon/quantum/quantum.o
 .text.send_string
                0x0000000000000000        0x6 .build/obj_doro67_multi_taylon/quantum/quantum.o
 .text.send_string_with_delay_P
                0x0000000000000000       0x74 .build/obj_doro67_multi_taylon/quantum/quantum.o
 .text.send_string_P
                0x0000000000000000        0x6 .build/obj_doro67_multi_taylon/quantum/quantum.o
 .text.set_single_persistent_default_layer
                0x0000000000000000       0x28 .build/obj_doro67_multi_taylon/quantum/quantum.o
 .text.update_tri_layer_state
                0x0000000000000000       0xa8 .build/obj_doro67_multi_taylon/quantum/quantum.o
 .text.update_tri_layer
                0x0000000000000000       0x24 .build/obj_doro67_multi_taylon/quantum/quantum.o
 .text.tap_random_base64
                0x0000000000000000       0x92 .build/obj_doro67_multi_taylon/quantum/quantum.o
 .text.send_nibble
                0x0000000000000000       0x32 .build/obj_doro67_multi_taylon/quantum/quantum.o
 .text.send_byte
                0x0000000000000000       0x16 .build/obj_doro67_multi_taylon/quantum/quantum.o
 .text.send_word
                0x0000000000000000       0x12 .build/obj_doro67_multi_taylon/quantum/quantum.o
 .text.send_dword
                0x0000000000000000       0x20 .build/obj_doro67_multi_taylon/quantum/quantum.o
 .text.hex_to_keycode
                0x0000000000000000       0x1c .build/obj_doro67_multi_taylon/quantum/quantum.o
 .text.api_send_unicode
                0x0000000000000000        0x2 .build/obj_doro67_multi_taylon/quantum/quantum.o
 .text.led_set_kb
                0x0000000000000000        0x4 .build/obj_doro67_multi_taylon/quantum/quantum.o
 .text.led_init_ports
                0x0000000000000000        0x2 .build/obj_doro67_multi_taylon/quantum/quantum.o
 .text.startup_user
                0x0000000000000000        0x2 .build/obj_doro67_multi_taylon/quantum/quantum.o
 .progmem.data.ascii_to_keycode_lut
                0x0000000000000000       0x80 .build/obj_doro67_multi_taylon/quantum/quantum.o
 .progmem.data.ascii_to_altgr_lut
                0x0000000000000000       0x80 .build/obj_doro67_multi_taylon/quantum/quantum.o
 .progmem.data.ascii_to_shift_lut
                0x0000000000000000       0x80 .build/obj_doro67_multi_taylon/quantum/quantum.o
 .text          0x0000000000000000        0x0 .build/obj_doro67_multi_taylon/quantum/keymap_common.o
 .data          0x0000000000000000        0x0 .build/obj_doro67_multi_taylon/quantum/keymap_common.o
 .bss           0x0000000000000000        0x0 .build/obj_doro67_multi_taylon/quantum/keymap_common.o
 .text          0x0000000000000000        0x0 .build/obj_doro67_multi_taylon/quantum/keycode_config.o
 .data          0x0000000000000000        0x0 .build/obj_doro67_multi_taylon/quantum/keycode_config.o
 .bss           0x0000000000000000        0x0 .build/obj_doro67_multi_taylon/quantum/keycode_config.o
 .text          0x0000000000000000        0x0 .build/obj_doro67_multi_taylon/quantum/matrix.o
 .data          0x0000000000000000        0x0 .build/obj_doro67_multi_taylon/quantum/matrix.o
 .bss           0x0000000000000000        0x0 .build/obj_doro67_multi_taylon/quantum/matrix.o
 .text.matrix_init_kb
                0x0000000000000000        0x4 .build/obj_doro67_multi_taylon/quantum/matrix.o
 .text.matrix_init_quantum
                0x0000000000000000        0x4 .build/obj_doro67_multi_taylon/quantum/matrix.o
 .text.matrix_scan_kb
                0x0000000000000000        0x4 .build/obj_doro67_multi_taylon/quantum/matrix.o
 .text.matrix_scan_quantum
                0x0000000000000000        0x4 .build/obj_doro67_multi_taylon/quantum/matrix.o
 .text.matrix_rows
                0x0000000000000000        0x4 .build/obj_doro67_multi_taylon/quantum/matrix.o
 .text.matrix_cols
                0x0000000000000000        0x4 .build/obj_doro67_multi_taylon/quantum/matrix.o
 .text.matrix_is_modified
                0x0000000000000000        0xa .build/obj_doro67_multi_taylon/quantum/matrix.o
 .text.matrix_is_on
                0x0000000000000000       0x2c .build/obj_doro67_multi_taylon/quantum/matrix.o
 .text.matrix_key_count
                0x0000000000000000       0x2c .build/obj_doro67_multi_taylon/quantum/matrix.o
 .text          0x0000000000000000        0x0 .build/obj_doro67_multi_taylon/quantum/debounce/sym_g.o
 .data          0x0000000000000000        0x0 .build/obj_doro67_multi_taylon/quantum/debounce/sym_g.o
 .bss           0x0000000000000000        0x0 .build/obj_doro67_multi_taylon/quantum/debounce/sym_g.o
 .text.debounce_active
                0x0000000000000000        0x6 .build/obj_doro67_multi_taylon/quantum/debounce/sym_g.o
 .text          0x0000000000000000        0x0 .build/obj_doro67_multi_taylon/quantum/process_keycode/process_tap_dance.o
 .data          0x0000000000000000        0x0 .build/obj_doro67_multi_taylon/quantum/process_keycode/process_tap_dance.o
 .bss           0x0000000000000000        0x0 .build/obj_doro67_multi_taylon/quantum/process_keycode/process_tap_dance.o
 .text.qk_tap_dance_dual_role_on_each_tap
                0x0000000000000000       0x20 .build/obj_doro67_multi_taylon/quantum/process_keycode/process_tap_dance.o
 .text.qk_tap_dance_dual_role_finished
                0x0000000000000000       0x26 .build/obj_doro67_multi_taylon/quantum/process_keycode/process_tap_dance.o
 .text.qk_tap_dance_dual_role_reset
                0x0000000000000000       0x14 .build/obj_doro67_multi_taylon/quantum/process_keycode/process_tap_dance.o
 .text          0x0000000000000000        0x0 .build/obj_doro67_multi_taylon/quantum/backlight/backlight.o
 .data          0x0000000000000000        0x0 .build/obj_doro67_multi_taylon/quantum/backlight/backlight.o
 .bss           0x0000000000000000        0x0 .build/obj_doro67_multi_taylon/quantum/backlight/backlight.o
 .text.is_backlight_enabled
                0x0000000000000000        0x8 .build/obj_doro67_multi_taylon/quantum/backlight/backlight.o
 .text.get_backlight_level
                0x0000000000000000        0xc .build/obj_doro67_multi_taylon/quantum/backlight/backlight.o
 .text          0x0000000000000000        0x0 .build/obj_doro67_multi_taylon/quantum/backlight/backlight_avr.o
 .data          0x0000000000000000        0x0 .build/obj_doro67_multi_taylon/quantum/backlight/backlight_avr.o
 .bss           0x0000000000000000        0x0 .build/obj_doro67_multi_taylon/quantum/backlight/backlight_avr.o
 .text.backlight_off
                0x0000000000000000       0x20 .build/obj_doro67_multi_taylon/quantum/backlight/backlight_avr.o
 .text          0x0000000000000000        0x0 .build/obj_doro67_multi_taylon/quantum/process_keycode/process_space_cadet.o
 .data          0x0000000000000000        0x0 .build/obj_doro67_multi_taylon/quantum/process_keycode/process_space_cadet.o
 .bss           0x0000000000000000        0x0 .build/obj_doro67_multi_taylon/quantum/process_keycode/process_space_cadet.o
 .text          0x0000000000000000        0x0 .build/obj_doro67_multi_taylon/common/host.o
 .data          0x0000000000000000        0x0 .build/obj_doro67_multi_taylon/common/host.o
 .bss           0x0000000000000000        0x0 .build/obj_doro67_multi_taylon/common/host.o
 .text.host_get_driver
                0x0000000000000000        0xa .build/obj_doro67_multi_taylon/common/host.o
 .text.host_last_system_report
                0x0000000000000000        0xa .build/obj_doro67_multi_taylon/common/host.o
 .text.host_last_consumer_report
                0x0000000000000000        0xa .build/obj_doro67_multi_taylon/common/host.o
 .text          0x0000000000000000        0x0 .build/obj_doro67_multi_taylon/common/keyboard.o
 .data          0x0000000000000000        0x0 .build/obj_doro67_multi_taylon/common/keyboard.o
 .bss           0x0000000000000000        0x0 .build/obj_doro67_multi_taylon/common/keyboard.o
 .text.keyboard_set_leds
                0x0000000000000000        0x4 .build/obj_doro67_multi_taylon/common/keyboard.o
 .text          0x0000000000000000        0x0 .build/obj_doro67_multi_taylon/common/action.o
 .data          0x0000000000000000        0x0 .build/obj_doro67_multi_taylon/common/action.o
 .bss           0x0000000000000000        0x0 .build/obj_doro67_multi_taylon/common/action.o
 .text.process_record_quantum
                0x0000000000000000        0x4 .build/obj_doro67_multi_taylon/common/action.o
 .text.process_record_nocache
                0x0000000000000000       0x10 .build/obj_doro67_multi_taylon/common/action.o
 .text.debug_action
                0x0000000000000000        0x2 .build/obj_doro67_multi_taylon/common/action.o
 .text          0x0000000000000000        0x0 .build/obj_doro67_multi_taylon/common/action_tapping.o
 .data          0x0000000000000000        0x0 .build/obj_doro67_multi_taylon/common/action_tapping.o
 .bss           0x0000000000000000        0x0 .build/obj_doro67_multi_taylon/common/action_tapping.o
 .text.get_tapping_term
                0x0000000000000000        0x6 .build/obj_doro67_multi_taylon/common/action_tapping.o
 .text          0x0000000000000000        0x0 .build/obj_doro67_multi_taylon/common/action_macro.o
 .data          0x0000000000000000        0x0 .build/obj_doro67_multi_taylon/common/action_macro.o
 .bss           0x0000000000000000        0x0 .build/obj_doro67_multi_taylon/common/action_macro.o
 .text          0x0000000000000000        0x0 .build/obj_doro67_multi_taylon/common/action_layer.o
 .data          0x0000000000000000        0x0 .build/obj_doro67_multi_taylon/common/action_layer.o
 .bss           0x0000000000000000        0x0 .build/obj_doro67_multi_taylon/common/action_layer.o
 .text.layer_state_cmp
                0x0000000000000000       0x2a .build/obj_doro67_multi_taylon/common/action_layer.o
 .text.layer_state_is
                0x0000000000000000       0x16 .build/obj_doro67_multi_taylon/common/action_layer.o
 .text          0x0000000000000000        0x0 .build/obj_doro67_multi_taylon/common/action_util.o
 .data          0x0000000000000000        0x0 .build/obj_doro67_multi_taylon/common/action_util.o
 .bss           0x0000000000000000        0x0 .build/obj_doro67_multi_taylon/common/action_util.o
 .text.add_key  0x0000000000000000        0xe .build/obj_doro67_multi_taylon/common/action_util.o
 .text.del_key  0x0000000000000000        0xe .build/obj_doro67_multi_taylon/common/action_util.o
 .text.clear_keys
                0x0000000000000000        0xc .build/obj_doro67_multi_taylon/common/action_util.o
 .text.get_oneshot_locked_mods
                0x0000000000000000        0x6 .build/obj_doro67_multi_taylon/common/action_util.o
 .text.has_oneshot_mods_timed_out
                0x0000000000000000        0x4 .build/obj_doro67_multi_taylon/common/action_util.o
 .text.set_mods
                0x0000000000000000        0x6 .build/obj_doro67_multi_taylon/common/action_util.o
 .text.set_weak_mods
                0x0000000000000000        0x6 .build/obj_doro67_multi_taylon/common/action_util.o
 .text.get_macro_mods
                0x0000000000000000        0x6 .build/obj_doro67_multi_taylon/common/action_util.o
 .text.set_macro_mods
                0x0000000000000000        0x6 .build/obj_doro67_multi_taylon/common/action_util.o
 .text.oneshot_locked_mods_changed_user
                0x0000000000000000        0x2 .build/obj_doro67_multi_taylon/common/action_util.o
 .text.oneshot_locked_mods_changed_kb
                0x0000000000000000        0x4 .build/obj_doro67_multi_taylon/common/action_util.o
 .text.set_oneshot_locked_mods
                0x0000000000000000       0x12 .build/obj_doro67_multi_taylon/common/action_util.o
 .text.clear_oneshot_locked_mods
                0x0000000000000000       0x14 .build/obj_doro67_multi_taylon/common/action_util.o
 .text.has_anymod
                0x0000000000000000        0x8 .build/obj_doro67_multi_taylon/common/action_util.o
 .bss.oneshot_locked_mods
                0x0000000000000000        0x1 .build/obj_doro67_multi_taylon/common/action_util.o
 .text          0x0000000000000000        0x0 .build/obj_doro67_multi_taylon/common/print.o
 .data          0x0000000000000000        0x0 .build/obj_doro67_multi_taylon/common/print.o
 .bss           0x0000000000000000        0x0 .build/obj_doro67_multi_taylon/common/print.o
 .debug_info    0x0000000000000000       0x56 .build/obj_doro67_multi_taylon/common/print.o
 .debug_abbrev  0x0000000000000000       0x26 .build/obj_doro67_multi_taylon/common/print.o
 .debug_aranges
                0x0000000000000000       0x18 .build/obj_doro67_multi_taylon/common/print.o
 .debug_line    0x0000000000000000       0x1a .build/obj_doro67_multi_taylon/common/print.o
 .debug_str     0x0000000000000000      0x164 .build/obj_doro67_multi_taylon/common/print.o
 .comment       0x0000000000000000       0x12 .build/obj_doro67_multi_taylon/common/print.o
 .text          0x0000000000000000        0x0 .build/obj_doro67_multi_taylon/common/debug.o
 .data          0x0000000000000000        0x0 .build/obj_doro67_multi_taylon/common/debug.o
 .bss           0x0000000000000000        0x0 .build/obj_doro67_multi_taylon/common/debug.o
 .text          0x0000000000000000        0x0 .build/obj_doro67_multi_taylon/common/util.o
 .data          0x0000000000000000        0x0 .build/obj_doro67_multi_taylon/common/util.o
 .bss           0x0000000000000000        0x0 .build/obj_doro67_multi_taylon/common/util.o
 .text.bitpop   0x0000000000000000       0x14 .build/obj_doro67_multi_taylon/common/util.o
 .text.bitpop16
                0x0000000000000000       0x18 .build/obj_doro67_multi_taylon/common/util.o
 .text.bitpop32
                0x0000000000000000       0x3a .build/obj_doro67_multi_taylon/common/util.o
 .text.biton    0x0000000000000000       0x28 .build/obj_doro67_multi_taylon/common/util.o
 .text.biton16  0x0000000000000000       0x4c .build/obj_doro67_multi_taylon/common/util.o
 .text.biton32  0x0000000000000000       0xa0 .build/obj_doro67_multi_taylon/common/util.o
 .text.bitrev   0x0000000000000000       0x2c .build/obj_doro67_multi_taylon/common/util.o
 .text.bitrev16
                0x0000000000000000       0x34 .build/obj_doro67_multi_taylon/common/util.o
 .text.bitrev32
                0x0000000000000000       0x56 .build/obj_doro67_multi_taylon/common/util.o
 .debug_info    0x0000000000000000      0x29b .build/obj_doro67_multi_taylon/common/util.o
 .debug_abbrev  0x0000000000000000       0xcb .build/obj_doro67_multi_taylon/common/util.o
 .debug_loc     0x0000000000000000      0x524 .build/obj_doro67_multi_taylon/common/util.o
 .debug_aranges
                0x0000000000000000       0x60 .build/obj_doro67_multi_taylon/common/util.o
 .debug_ranges  0x0000000000000000       0x50 .build/obj_doro67_multi_taylon/common/util.o
 .debug_line    0x0000000000000000      0x233 .build/obj_doro67_multi_taylon/common/util.o
 .debug_str     0x0000000000000000      0x1ca .build/obj_doro67_multi_taylon/common/util.o
 .comment       0x0000000000000000       0x12 .build/obj_doro67_multi_taylon/common/util.o
 .debug_frame   0x0000000000000000      0x11c .build/obj_doro67_multi_taylon/common/util.o
 .text          0x0000000000000000        0x0 .build/obj_doro67_multi_taylon/common/eeconfig.o
 .data          0x0000000000000000        0x0 .build/obj_doro67_multi_taylon/common/eeconfig.o
 .bss           0x0000000000000000        0x0 .build/obj_doro67_multi_taylon/common/eeconfig.o
 .text.eeconfig_enable
                0x0000000000000000        0xc .build/obj_doro67_multi_taylon/common/eeconfig.o
 .text.eeconfig_is_disabled
                0x0000000000000000       0x14 .build/obj_doro67_multi_taylon/common/eeconfig.o
 .text.eeconfig_update_debug
                0x0000000000000000        0xa .build/obj_doro67_multi_taylon/common/eeconfig.o
 .text.eeconfig_update_default_layer
                0x0000000000000000        0xa .build/obj_doro67_multi_taylon/common/eeconfig.o
 .text.eeconfig_read_audio
                0x0000000000000000        0x8 .build/obj_doro67_multi_taylon/common/eeconfig.o
 .text.eeconfig_update_audio
                0x0000000000000000        0xa .build/obj_doro67_multi_taylon/common/eeconfig.o
 .text.eeconfig_read_kb
                0x0000000000000000        0x8 .build/obj_doro67_multi_taylon/common/eeconfig.o
 .text.eeconfig_read_user
                0x0000000000000000        0x8 .build/obj_doro67_multi_taylon/common/eeconfig.o
 .text.eeconfig_read_haptic
                0x0000000000000000        0x8 .build/obj_doro67_multi_taylon/common/eeconfig.o
 .text.eeconfig_update_haptic
                0x0000000000000000        0xc .build/obj_doro67_multi_taylon/common/eeconfig.o
 .text.eeconfig_read_handedness
                0x0000000000000000       0x14 .build/obj_doro67_multi_taylon/common/eeconfig.o
 .text          0x0000000000000000        0x0 .build/obj_doro67_multi_taylon/common/report.o
 .data          0x0000000000000000        0x0 .build/obj_doro67_multi_taylon/common/report.o
 .bss           0x0000000000000000        0x0 .build/obj_doro67_multi_taylon/common/report.o
 .text.get_first_key
                0x0000000000000000        0x6 .build/obj_doro67_multi_taylon/common/report.o
 .text          0x0000000000000000        0x0 .build/obj_doro67_multi_taylon/common/avr/suspend.o
 .data          0x0000000000000000        0x0 .build/obj_doro67_multi_taylon/common/avr/suspend.o
 .bss           0x0000000000000000        0x0 .build/obj_doro67_multi_taylon/common/avr/suspend.o
 .text.suspend_idle
                0x0000000000000000       0x1a .build/obj_doro67_multi_taylon/common/avr/suspend.o
 .text          0x0000000000000000        0x0 .build/obj_doro67_multi_taylon/common/avr/timer.o
 .data          0x0000000000000000        0x0 .build/obj_doro67_multi_taylon/common/avr/timer.o
 .bss           0x0000000000000000        0x0 .build/obj_doro67_multi_taylon/common/avr/timer.o
 .text.timer_clear
                0x0000000000000000       0x18 .build/obj_doro67_multi_taylon/common/avr/timer.o
 .text.timer_read32
                0x0000000000000000       0x18 .build/obj_doro67_multi_taylon/common/avr/timer.o
 .text.timer_elapsed32
                0x0000000000000000       0x58 .build/obj_doro67_multi_taylon/common/avr/timer.o
 .text          0x0000000000000000        0x0 .build/obj_doro67_multi_taylon/common/avr/bootloader.o
 .data          0x0000000000000000        0x0 .build/obj_doro67_multi_taylon/common/avr/bootloader.o
 .bss           0x0000000000000000        0x0 .build/obj_doro67_multi_taylon/common/avr/bootloader.o
 .text          0x0000000000000000      0x15c .build/obj_doro67_multi_taylon/common/avr/xprintf.o
 .data          0x0000000000000000        0x0 .build/obj_doro67_multi_taylon/common/avr/xprintf.o
 .bss           0x0000000000000000        0x2 .build/obj_doro67_multi_taylon/common/avr/xprintf.o
 .stab          0x0000000000000000      0x8b8 .build/obj_doro67_multi_taylon/common/avr/xprintf.o
 .text          0x0000000000000000        0x0 .build/obj_doro67_multi_taylon/common/magic.o
 .data          0x0000000000000000        0x0 .build/obj_doro67_multi_taylon/common/magic.o
 .bss           0x0000000000000000        0x0 .build/obj_doro67_multi_taylon/common/magic.o
 .text          0x0000000000000000        0x0 .build/obj_doro67_multi_taylon/common/mousekey.o
 .data          0x0000000000000000        0x0 .build/obj_doro67_multi_taylon/common/mousekey.o
 .bss           0x0000000000000000        0x0 .build/obj_doro67_multi_taylon/common/mousekey.o
 .text          0x0000000000000000        0x0 .build/obj_doro67_multi_taylon/lufa.o
 .data          0x0000000000000000        0x0 .build/obj_doro67_multi_taylon/lufa.o
 .bss           0x0000000000000000        0x0 .build/obj_doro67_multi_taylon/lufa.o
 .text.sendchar
                0x0000000000000000        0x4 .build/obj_doro67_multi_taylon/lufa.o
 .text          0x0000000000000000        0x0 .build/obj_doro67_multi_taylon/usb_descriptor.o
 .data          0x0000000000000000        0x0 .build/obj_doro67_multi_taylon/usb_descriptor.o
 .bss           0x0000000000000000        0x0 .build/obj_doro67_multi_taylon/usb_descriptor.o
 .text          0x0000000000000000        0x0 .build/obj_doro67_multi_taylon/outputselect.o
 .data          0x0000000000000000        0x0 .build/obj_doro67_multi_taylon/outputselect.o
 .bss           0x0000000000000000        0x0 .build/obj_doro67_multi_taylon/outputselect.o
 .text          0x0000000000000000        0x0 .build/obj_doro67_multi_taylon/lib/lufa/LUFA/Drivers/USB/Class/Common/HIDParser.o
 .data          0x0000000000000000        0x0 .build/obj_doro67_multi_taylon/lib/lufa/LUFA/Drivers/USB/Class/Common/HIDParser.o
 .bss           0x0000000000000000        0x0 .build/obj_doro67_multi_taylon/lib/lufa/LUFA/Drivers/USB/Class/Common/HIDParser.o
 .text.USB_ProcessHIDReport
                0x0000000000000000      0x6ba .build/obj_doro67_multi_taylon/lib/lufa/LUFA/Drivers/USB/Class/Common/HIDParser.o
 .text.USB_GetHIDReportItemInfo
                0x0000000000000000       0xbc .build/obj_doro67_multi_taylon/lib/lufa/LUFA/Drivers/USB/Class/Common/HIDParser.o
 .text.USB_SetHIDReportItemInfo
                0x0000000000000000       0xc0 .build/obj_doro67_multi_taylon/lib/lufa/LUFA/Drivers/USB/Class/Common/HIDParser.o
 .text.USB_GetHIDReportSize
                0x0000000000000000       0x54 .build/obj_doro67_multi_taylon/lib/lufa/LUFA/Drivers/USB/Class/Common/HIDParser.o
 .debug_info    0x0000000000000000      0x738 .build/obj_doro67_multi_taylon/lib/lufa/LUFA/Drivers/USB/Class/Common/HIDParser.o
 .debug_abbrev  0x0000000000000000      0x21e .build/obj_doro67_multi_taylon/lib/lufa/LUFA/Drivers/USB/Class/Common/HIDParser.o
 .debug_loc     0x0000000000000000      0xa2f .build/obj_doro67_multi_taylon/lib/lufa/LUFA/Drivers/USB/Class/Common/HIDParser.o
 .debug_aranges
                0x0000000000000000       0x38 .build/obj_doro67_multi_taylon/lib/lufa/LUFA/Drivers/USB/Class/Common/HIDParser.o
 .debug_ranges  0x0000000000000000       0xd0 .build/obj_doro67_multi_taylon/lib/lufa/LUFA/Drivers/USB/Class/Common/HIDParser.o
 .debug_line    0x0000000000000000      0x581 .build/obj_doro67_multi_taylon/lib/lufa/LUFA/Drivers/USB/Class/Common/HIDParser.o
 .debug_str     0x0000000000000000      0x6a1 .build/obj_doro67_multi_taylon/lib/lufa/LUFA/Drivers/USB/Class/Common/HIDParser.o
 .comment       0x0000000000000000       0x12 .build/obj_doro67_multi_taylon/lib/lufa/LUFA/Drivers/USB/Class/Common/HIDParser.o
 .debug_frame   0x0000000000000000      0x140 .build/obj_doro67_multi_taylon/lib/lufa/LUFA/Drivers/USB/Class/Common/HIDParser.o
 .text          0x0000000000000000        0x0 .build/obj_doro67_multi_taylon/lib/lufa/LUFA/Drivers/USB/Core/AVR8/Device_AVR8.o
 .data          0x0000000000000000        0x0 .build/obj_doro67_multi_taylon/lib/lufa/LUFA/Drivers/USB/Core/AVR8/Device_AVR8.o
 .bss           0x0000000000000000        0x0 .build/obj_doro67_multi_taylon/lib/lufa/LUFA/Drivers/USB/Core/AVR8/Device_AVR8.o
 .text          0x0000000000000000        0x0 .build/obj_doro67_multi_taylon/lib/lufa/LUFA/Drivers/USB/Core/AVR8/EndpointStream_AVR8.o
 .data          0x0000000000000000        0x0 .build/obj_doro67_multi_taylon/lib/lufa/LUFA/Drivers/USB/Core/AVR8/EndpointStream_AVR8.o
 .bss           0x0000000000000000        0x0 .build/obj_doro67_multi_taylon/lib/lufa/LUFA/Drivers/USB/Core/AVR8/EndpointStream_AVR8.o
 .text.Endpoint_Discard_Stream
                0x0000000000000000       0x6a .build/obj_doro67_multi_taylon/lib/lufa/LUFA/Drivers/USB/Core/AVR8/EndpointStream_AVR8.o
 .text.Endpoint_Null_Stream
                0x0000000000000000       0x6a .build/obj_doro67_multi_taylon/lib/lufa/LUFA/Drivers/USB/Core/AVR8/EndpointStream_AVR8.o
 .text.Endpoint_Write_Stream_BE
                0x0000000000000000       0xa2 .build/obj_doro67_multi_taylon/lib/lufa/LUFA/Drivers/USB/Core/AVR8/EndpointStream_AVR8.o
 .text.Endpoint_Read_Stream_LE
                0x0000000000000000       0x96 .build/obj_doro67_multi_taylon/lib/lufa/LUFA/Drivers/USB/Core/AVR8/EndpointStream_AVR8.o
 .text.Endpoint_Read_Stream_BE
                0x0000000000000000       0xa2 .build/obj_doro67_multi_taylon/lib/lufa/LUFA/Drivers/USB/Core/AVR8/EndpointStream_AVR8.o
 .text.Endpoint_Write_PStream_LE
                0x0000000000000000       0x9a .build/obj_doro67_multi_taylon/lib/lufa/LUFA/Drivers/USB/Core/AVR8/EndpointStream_AVR8.o
 .text.Endpoint_Write_PStream_BE
                0x0000000000000000       0xa4 .build/obj_doro67_multi_taylon/lib/lufa/LUFA/Drivers/USB/Core/AVR8/EndpointStream_AVR8.o
 .text.Endpoint_Write_EStream_LE
                0x0000000000000000       0x9e .build/obj_doro67_multi_taylon/lib/lufa/LUFA/Drivers/USB/Core/AVR8/EndpointStream_AVR8.o
 .text.Endpoint_Write_EStream_BE
                0x0000000000000000       0xa6 .build/obj_doro67_multi_taylon/lib/lufa/LUFA/Drivers/USB/Core/AVR8/EndpointStream_AVR8.o
 .text.Endpoint_Read_EStream_LE
                0x0000000000000000       0x9e .build/obj_doro67_multi_taylon/lib/lufa/LUFA/Drivers/USB/Core/AVR8/EndpointStream_AVR8.o
 .text.Endpoint_Read_EStream_BE
                0x0000000000000000       0xa6 .build/obj_doro67_multi_taylon/lib/lufa/LUFA/Drivers/USB/Core/AVR8/EndpointStream_AVR8.o
 .text.Endpoint_Write_Control_Stream_BE
                0x0000000000000000       0xd0 .build/obj_doro67_multi_taylon/lib/lufa/LUFA/Drivers/USB/Core/AVR8/EndpointStream_AVR8.o
 .text.Endpoint_Read_Control_Stream_LE
                0x0000000000000000       0x80 .build/obj_doro67_multi_taylon/lib/lufa/LUFA/Drivers/USB/Core/AVR8/EndpointStream_AVR8.o
 .text.Endpoint_Read_Control_Stream_BE
                0x0000000000000000       0x82 .build/obj_doro67_multi_taylon/lib/lufa/LUFA/Drivers/USB/Core/AVR8/EndpointStream_AVR8.o
 .text.Endpoint_Write_Control_PStream_BE
                0x0000000000000000       0xce .build/obj_doro67_multi_taylon/lib/lufa/LUFA/Drivers/USB/Core/AVR8/EndpointStream_AVR8.o
 .text.Endpoint_Write_Control_EStream_LE
                0x0000000000000000       0xf4 .build/obj_doro67_multi_taylon/lib/lufa/LUFA/Drivers/USB/Core/AVR8/EndpointStream_AVR8.o
 .text.Endpoint_Write_Control_EStream_BE
                0x0000000000000000      0x100 .build/obj_doro67_multi_taylon/lib/lufa/LUFA/Drivers/USB/Core/AVR8/EndpointStream_AVR8.o
 .text.Endpoint_Read_Control_EStream_LE
                0x0000000000000000       0x94 .build/obj_doro67_multi_taylon/lib/lufa/LUFA/Drivers/USB/Core/AVR8/EndpointStream_AVR8.o
 .text.Endpoint_Read_Control_EStream_BE
                0x0000000000000000       0x92 .build/obj_doro67_multi_taylon/lib/lufa/LUFA/Drivers/USB/Core/AVR8/EndpointStream_AVR8.o
 .text          0x0000000000000000        0x0 .build/obj_doro67_multi_taylon/lib/lufa/LUFA/Drivers/USB/Core/AVR8/Endpoint_AVR8.o
 .data          0x0000000000000000        0x0 .build/obj_doro67_multi_taylon/lib/lufa/LUFA/Drivers/USB/Core/AVR8/Endpoint_AVR8.o
 .bss           0x0000000000000000        0x0 .build/obj_doro67_multi_taylon/lib/lufa/LUFA/Drivers/USB/Core/AVR8/Endpoint_AVR8.o
 .text.Endpoint_ConfigureEndpointTable
                0x0000000000000000       0x92 .build/obj_doro67_multi_taylon/lib/lufa/LUFA/Drivers/USB/Core/AVR8/Endpoint_AVR8.o
 .text.Endpoint_ClearEndpoints
                0x0000000000000000       0x28 .build/obj_doro67_multi_taylon/lib/lufa/LUFA/Drivers/USB/Core/AVR8/Endpoint_AVR8.o
 .text          0x0000000000000000        0x0 .build/obj_doro67_multi_taylon/lib/lufa/LUFA/Drivers/USB/Core/AVR8/Host_AVR8.o
 .data          0x0000000000000000        0x0 .build/obj_doro67_multi_taylon/lib/lufa/LUFA/Drivers/USB/Core/AVR8/Host_AVR8.o
 .bss           0x0000000000000000        0x0 .build/obj_doro67_multi_taylon/lib/lufa/LUFA/Drivers/USB/Core/AVR8/Host_AVR8.o
 .debug_info    0x0000000000000000       0x56 .build/obj_doro67_multi_taylon/lib/lufa/LUFA/Drivers/USB/Core/AVR8/Host_AVR8.o
 .debug_abbrev  0x0000000000000000       0x26 .build/obj_doro67_multi_taylon/lib/lufa/LUFA/Drivers/USB/Core/AVR8/Host_AVR8.o
 .debug_aranges
                0x0000000000000000       0x18 .build/obj_doro67_multi_taylon/lib/lufa/LUFA/Drivers/USB/Core/AVR8/Host_AVR8.o
 .debug_line    0x0000000000000000       0x1a .build/obj_doro67_multi_taylon/lib/lufa/LUFA/Drivers/USB/Core/AVR8/Host_AVR8.o
 .debug_str     0x0000000000000000      0x17c .build/obj_doro67_multi_taylon/lib/lufa/LUFA/Drivers/USB/Core/AVR8/Host_AVR8.o
 .comment       0x0000000000000000       0x12 .build/obj_doro67_multi_taylon/lib/lufa/LUFA/Drivers/USB/Core/AVR8/Host_AVR8.o
 .text          0x0000000000000000        0x0 .build/obj_doro67_multi_taylon/lib/lufa/LUFA/Drivers/USB/Core/AVR8/PipeStream_AVR8.o
 .data          0x0000000000000000        0x0 .build/obj_doro67_multi_taylon/lib/lufa/LUFA/Drivers/USB/Core/AVR8/PipeStream_AVR8.o
 .bss           0x0000000000000000        0x0 .build/obj_doro67_multi_taylon/lib/lufa/LUFA/Drivers/USB/Core/AVR8/PipeStream_AVR8.o
 .debug_info    0x0000000000000000       0x56 .build/obj_doro67_multi_taylon/lib/lufa/LUFA/Drivers/USB/Core/AVR8/PipeStream_AVR8.o
 .debug_abbrev  0x0000000000000000       0x26 .build/obj_doro67_multi_taylon/lib/lufa/LUFA/Drivers/USB/Core/AVR8/PipeStream_AVR8.o
 .debug_aranges
                0x0000000000000000       0x18 .build/obj_doro67_multi_taylon/lib/lufa/LUFA/Drivers/USB/Core/AVR8/PipeStream_AVR8.o
 .debug_line    0x0000000000000000       0x1a .build/obj_doro67_multi_taylon/lib/lufa/LUFA/Drivers/USB/Core/AVR8/PipeStream_AVR8.o
 .debug_str     0x0000000000000000      0x182 .build/obj_doro67_multi_taylon/lib/lufa/LUFA/Drivers/USB/Core/AVR8/PipeStream_AVR8.o
 .comment       0x0000000000000000       0x12 .build/obj_doro67_multi_taylon/lib/lufa/LUFA/Drivers/USB/Core/AVR8/PipeStream_AVR8.o
 .text          0x0000000000000000        0x0 .build/obj_doro67_multi_taylon/lib/lufa/LUFA/Drivers/USB/Core/AVR8/Pipe_AVR8.o
 .data          0x0000000000000000        0x0 .build/obj_doro67_multi_taylon/lib/lufa/LUFA/Drivers/USB/Core/AVR8/Pipe_AVR8.o
 .bss           0x0000000000000000        0x0 .build/obj_doro67_multi_taylon/lib/lufa/LUFA/Drivers/USB/Core/AVR8/Pipe_AVR8.o
 .debug_info    0x0000000000000000       0x56 .build/obj_doro67_multi_taylon/lib/lufa/LUFA/Drivers/USB/Core/AVR8/Pipe_AVR8.o
 .debug_abbrev  0x0000000000000000       0x26 .build/obj_doro67_multi_taylon/lib/lufa/LUFA/Drivers/USB/Core/AVR8/Pipe_AVR8.o
 .debug_aranges
                0x0000000000000000       0x18 .build/obj_doro67_multi_taylon/lib/lufa/LUFA/Drivers/USB/Core/AVR8/Pipe_AVR8.o
 .debug_line    0x0000000000000000       0x1a .build/obj_doro67_multi_taylon/lib/lufa/LUFA/Drivers/USB/Core/AVR8/Pipe_AVR8.o
 .debug_str     0x0000000000000000      0x17c .build/obj_doro67_multi_taylon/lib/lufa/LUFA/Drivers/USB/Core/AVR8/Pipe_AVR8.o
 .comment       0x0000000000000000       0x12 .build/obj_doro67_multi_taylon/lib/lufa/LUFA/Drivers/USB/Core/AVR8/Pipe_AVR8.o
 .text          0x0000000000000000        0x0 .build/obj_doro67_multi_taylon/lib/lufa/LUFA/Drivers/USB/Core/AVR8/USBController_AVR8.o
 .data          0x0000000000000000        0x0 .build/obj_doro67_multi_taylon/lib/lufa/LUFA/Drivers/USB/Core/AVR8/USBController_AVR8.o
 .bss           0x0000000000000000        0x0 .build/obj_doro67_multi_taylon/lib/lufa/LUFA/Drivers/USB/Core/AVR8/USBController_AVR8.o
 .text          0x0000000000000000        0x0 .build/obj_doro67_multi_taylon/lib/lufa/LUFA/Drivers/USB/Core/AVR8/USBInterrupt_AVR8.o
 .data          0x0000000000000000        0x0 .build/obj_doro67_multi_taylon/lib/lufa/LUFA/Drivers/USB/Core/AVR8/USBInterrupt_AVR8.o
 .bss           0x0000000000000000        0x0 .build/obj_doro67_multi_taylon/lib/lufa/LUFA/Drivers/USB/Core/AVR8/USBInterrupt_AVR8.o
 .text          0x0000000000000000        0x0 .build/obj_doro67_multi_taylon/lib/lufa/LUFA/Drivers/USB/Core/ConfigDescriptors.o
 .data          0x0000000000000000        0x0 .build/obj_doro67_multi_taylon/lib/lufa/LUFA/Drivers/USB/Core/ConfigDescriptors.o
 .bss           0x0000000000000000        0x0 .build/obj_doro67_multi_taylon/lib/lufa/LUFA/Drivers/USB/Core/ConfigDescriptors.o
 .text.USB_GetNextDescriptor
                0x0000000000000000       0x3c .build/obj_doro67_multi_taylon/lib/lufa/LUFA/Drivers/USB/Core/ConfigDescriptors.o
 .text.USB_GetNextDescriptorOfType
                0x0000000000000000       0x48 .build/obj_doro67_multi_taylon/lib/lufa/LUFA/Drivers/USB/Core/ConfigDescriptors.o
 .text.USB_GetNextDescriptorOfTypeBefore
                0x0000000000000000       0x58 .build/obj_doro67_multi_taylon/lib/lufa/LUFA/Drivers/USB/Core/ConfigDescriptors.o
 .text.USB_GetNextDescriptorOfTypeAfter
                0x0000000000000000       0x3e .build/obj_doro67_multi_taylon/lib/lufa/LUFA/Drivers/USB/Core/ConfigDescriptors.o
 .text.USB_GetNextDescriptorComp
                0x0000000000000000       0x66 .build/obj_doro67_multi_taylon/lib/lufa/LUFA/Drivers/USB/Core/ConfigDescriptors.o
 .debug_info    0x0000000000000000      0x3cd .build/obj_doro67_multi_taylon/lib/lufa/LUFA/Drivers/USB/Core/ConfigDescriptors.o
 .debug_abbrev  0x0000000000000000      0x183 .build/obj_doro67_multi_taylon/lib/lufa/LUFA/Drivers/USB/Core/ConfigDescriptors.o
 .debug_loc     0x0000000000000000      0x5bd .build/obj_doro67_multi_taylon/lib/lufa/LUFA/Drivers/USB/Core/ConfigDescriptors.o
 .debug_aranges
                0x0000000000000000       0x40 .build/obj_doro67_multi_taylon/lib/lufa/LUFA/Drivers/USB/Core/ConfigDescriptors.o
 .debug_ranges  0x0000000000000000       0x30 .build/obj_doro67_multi_taylon/lib/lufa/LUFA/Drivers/USB/Core/ConfigDescriptors.o
 .debug_line    0x0000000000000000      0x1da .build/obj_doro67_multi_taylon/lib/lufa/LUFA/Drivers/USB/Core/ConfigDescriptors.o
 .debug_str     0x0000000000000000      0x3c5 .build/obj_doro67_multi_taylon/lib/lufa/LUFA/Drivers/USB/Core/ConfigDescriptors.o
 .comment       0x0000000000000000       0x12 .build/obj_doro67_multi_taylon/lib/lufa/LUFA/Drivers/USB/Core/ConfigDescriptors.o
 .debug_frame   0x0000000000000000      0x124 .build/obj_doro67_multi_taylon/lib/lufa/LUFA/Drivers/USB/Core/ConfigDescriptors.o
 .text          0x0000000000000000        0x0 .build/obj_doro67_multi_taylon/lib/lufa/LUFA/Drivers/USB/Core/DeviceStandardReq.o
 .data          0x0000000000000000        0x0 .build/obj_doro67_multi_taylon/lib/lufa/LUFA/Drivers/USB/Core/DeviceStandardReq.o
 .bss           0x0000000000000000        0x0 .build/obj_doro67_multi_taylon/lib/lufa/LUFA/Drivers/USB/Core/DeviceStandardReq.o
 .text          0x0000000000000000        0x0 .build/obj_doro67_multi_taylon/lib/lufa/LUFA/Drivers/USB/Core/Events.o
 .data          0x0000000000000000        0x0 .build/obj_doro67_multi_taylon/lib/lufa/LUFA/Drivers/USB/Core/Events.o
 .bss           0x0000000000000000        0x0 .build/obj_doro67_multi_taylon/lib/lufa/LUFA/Drivers/USB/Core/Events.o
 .text.USB_Event_Stub_2
                0x0000000000000000        0x2 .build/obj_doro67_multi_taylon/lib/lufa/LUFA/Drivers/USB/Core/Events.o
 .text.USB_Event_Stub_3
                0x0000000000000000        0x2 .build/obj_doro67_multi_taylon/lib/lufa/LUFA/Drivers/USB/Core/Events.o
 .text          0x0000000000000000        0x0 .build/obj_doro67_multi_taylon/lib/lufa/LUFA/Drivers/USB/Core/HostStandardReq.o
 .data          0x0000000000000000        0x0 .build/obj_doro67_multi_taylon/lib/lufa/LUFA/Drivers/USB/Core/HostStandardReq.o
 .bss           0x0000000000000000        0x0 .build/obj_doro67_multi_taylon/lib/lufa/LUFA/Drivers/USB/Core/HostStandardReq.o
 .debug_info    0x0000000000000000       0x56 .build/obj_doro67_multi_taylon/lib/lufa/LUFA/Drivers/USB/Core/HostStandardReq.o
 .debug_abbrev  0x0000000000000000       0x26 .build/obj_doro67_multi_taylon/lib/lufa/LUFA/Drivers/USB/Core/HostStandardReq.o
 .debug_aranges
                0x0000000000000000       0x18 .build/obj_doro67_multi_taylon/lib/lufa/LUFA/Drivers/USB/Core/HostStandardReq.o
 .debug_line    0x0000000000000000       0x1a .build/obj_doro67_multi_taylon/lib/lufa/LUFA/Drivers/USB/Core/HostStandardReq.o
 .debug_str     0x0000000000000000      0x17d .build/obj_doro67_multi_taylon/lib/lufa/LUFA/Drivers/USB/Core/HostStandardReq.o
 .comment       0x0000000000000000       0x12 .build/obj_doro67_multi_taylon/lib/lufa/LUFA/Drivers/USB/Core/HostStandardReq.o
 .text          0x0000000000000000        0x0 .build/obj_doro67_multi_taylon/lib/lufa/LUFA/Drivers/USB/Core/USBTask.o
 .data          0x0000000000000000        0x0 .build/obj_doro67_multi_taylon/lib/lufa/LUFA/Drivers/USB/Core/USBTask.o
 .bss           0x0000000000000000        0x0 .build/obj_doro67_multi_taylon/lib/lufa/LUFA/Drivers/USB/Core/USBTask.o
 .text          0x0000000000000000        0x0 /usr/lib/gcc/avr/4.9.2/avr5/libgcc.a(_mulsi3.o)
 .data          0x0000000000000000        0x0 /usr/lib/gcc/avr/4.9.2/avr5/libgcc.a(_mulsi3.o)
 .bss           0x0000000000000000        0x0 /usr/lib/gcc/avr/4.9.2/avr5/libgcc.a(_mulsi3.o)
 .text.libgcc.div
                0x0000000000000000        0x0 /usr/lib/gcc/avr/4.9.2/avr5/libgcc.a(_mulsi3.o)
 .text.libgcc   0x0000000000000000        0x0 /usr/lib/gcc/avr/4.9.2/avr5/libgcc.a(_mulsi3.o)
 .text.libgcc.prologue
                0x0000000000000000        0x0 /usr/lib/gcc/avr/4.9.2/avr5/libgcc.a(_mulsi3.o)
 .text.libgcc.builtins
                0x0000000000000000        0x0 /usr/lib/gcc/avr/4.9.2/avr5/libgcc.a(_mulsi3.o)
 .text.libgcc.fmul
                0x0000000000000000        0x0 /usr/lib/gcc/avr/4.9.2/avr5/libgcc.a(_mulsi3.o)
 .text.libgcc.fixed
                0x0000000000000000        0x0 /usr/lib/gcc/avr/4.9.2/avr5/libgcc.a(_mulsi3.o)
 .text          0x0000000000000000        0x0 /usr/lib/gcc/avr/4.9.2/avr5/libgcc.a(_udivmodhi4.o)
 .data          0x0000000000000000        0x0 /usr/lib/gcc/avr/4.9.2/avr5/libgcc.a(_udivmodhi4.o)
 .bss           0x0000000000000000        0x0 /usr/lib/gcc/avr/4.9.2/avr5/libgcc.a(_udivmodhi4.o)
 .text.libgcc.mul
                0x0000000000000000        0x0 /usr/lib/gcc/avr/4.9.2/avr5/libgcc.a(_udivmodhi4.o)
 .text.libgcc   0x0000000000000000        0x0 /usr/lib/gcc/avr/4.9.2/avr5/libgcc.a(_udivmodhi4.o)
 .text.libgcc.prologue
                0x0000000000000000        0x0 /usr/lib/gcc/avr/4.9.2/avr5/libgcc.a(_udivmodhi4.o)
 .text.libgcc.builtins
                0x0000000000000000        0x0 /usr/lib/gcc/avr/4.9.2/avr5/libgcc.a(_udivmodhi4.o)
 .text.libgcc.fmul
                0x0000000000000000        0x0 /usr/lib/gcc/avr/4.9.2/avr5/libgcc.a(_udivmodhi4.o)
 .text.libgcc.fixed
                0x0000000000000000        0x0 /usr/lib/gcc/avr/4.9.2/avr5/libgcc.a(_udivmodhi4.o)
 .text          0x0000000000000000        0x0 /usr/lib/gcc/avr/4.9.2/avr5/libgcc.a(_divmodhi4.o)
 .data          0x0000000000000000        0x0 /usr/lib/gcc/avr/4.9.2/avr5/libgcc.a(_divmodhi4.o)
 .bss           0x0000000000000000        0x0 /usr/lib/gcc/avr/4.9.2/avr5/libgcc.a(_divmodhi4.o)
 .text.libgcc.mul
                0x0000000000000000        0x0 /usr/lib/gcc/avr/4.9.2/avr5/libgcc.a(_divmodhi4.o)
 .text.libgcc   0x0000000000000000        0x0 /usr/lib/gcc/avr/4.9.2/avr5/libgcc.a(_divmodhi4.o)
 .text.libgcc.prologue
                0x0000000000000000        0x0 /usr/lib/gcc/avr/4.9.2/avr5/libgcc.a(_divmodhi4.o)
 .text.libgcc.builtins
                0x0000000000000000        0x0 /usr/lib/gcc/avr/4.9.2/avr5/libgcc.a(_divmodhi4.o)
 .text.libgcc.fmul
                0x0000000000000000        0x0 /usr/lib/gcc/avr/4.9.2/avr5/libgcc.a(_divmodhi4.o)
 .text.libgcc.fixed
                0x0000000000000000        0x0 /usr/lib/gcc/avr/4.9.2/avr5/libgcc.a(_divmodhi4.o)
 .text          0x0000000000000000        0x0 /usr/lib/gcc/avr/4.9.2/avr5/libgcc.a(_udivmodsi4.o)
 .data          0x0000000000000000        0x0 /usr/lib/gcc/avr/4.9.2/avr5/libgcc.a(_udivmodsi4.o)
 .bss           0x0000000000000000        0x0 /usr/lib/gcc/avr/4.9.2/avr5/libgcc.a(_udivmodsi4.o)
 .text.libgcc.mul
                0x0000000000000000        0x0 /usr/lib/gcc/avr/4.9.2/avr5/libgcc.a(_udivmodsi4.o)
 .text.libgcc   0x0000000000000000        0x0 /usr/lib/gcc/avr/4.9.2/avr5/libgcc.a(_udivmodsi4.o)
 .text.libgcc.prologue
                0x0000000000000000        0x0 /usr/lib/gcc/avr/4.9.2/avr5/libgcc.a(_udivmodsi4.o)
 .text.libgcc.builtins
                0x0000000000000000        0x0 /usr/lib/gcc/avr/4.9.2/avr5/libgcc.a(_udivmodsi4.o)
 .text.libgcc.fmul
                0x0000000000000000        0x0 /usr/lib/gcc/avr/4.9.2/avr5/libgcc.a(_udivmodsi4.o)
 .text.libgcc.fixed
                0x0000000000000000        0x0 /usr/lib/gcc/avr/4.9.2/avr5/libgcc.a(_udivmodsi4.o)
 .text          0x0000000000000000        0x0 /usr/lib/gcc/avr/4.9.2/avr5/libgcc.a(_exit.o)
 .data          0x0000000000000000        0x0 /usr/lib/gcc/avr/4.9.2/avr5/libgcc.a(_exit.o)
 .bss           0x0000000000000000        0x0 /usr/lib/gcc/avr/4.9.2/avr5/libgcc.a(_exit.o)
 .text.libgcc.mul
                0x0000000000000000        0x0 /usr/lib/gcc/avr/4.9.2/avr5/libgcc.a(_exit.o)
 .text.libgcc.div
                0x0000000000000000        0x0 /usr/lib/gcc/avr/4.9.2/avr5/libgcc.a(_exit.o)
 .text.libgcc   0x0000000000000000        0x0 /usr/lib/gcc/avr/4.9.2/avr5/libgcc.a(_exit.o)
 .text.libgcc.prologue
                0x0000000000000000        0x0 /usr/lib/gcc/avr/4.9.2/avr5/libgcc.a(_exit.o)
 .text.libgcc.builtins
                0x0000000000000000        0x0 /usr/lib/gcc/avr/4.9.2/avr5/libgcc.a(_exit.o)
 .text.libgcc.fmul
                0x0000000000000000        0x0 /usr/lib/gcc/avr/4.9.2/avr5/libgcc.a(_exit.o)
 .text.libgcc.fixed
                0x0000000000000000        0x0 /usr/lib/gcc/avr/4.9.2/avr5/libgcc.a(_exit.o)
 .text          0x0000000000000000        0x0 /usr/lib/gcc/avr/4.9.2/avr5/libgcc.a(_tablejump2.o)
 .data          0x0000000000000000        0x0 /usr/lib/gcc/avr/4.9.2/avr5/libgcc.a(_tablejump2.o)
 .bss           0x0000000000000000        0x0 /usr/lib/gcc/avr/4.9.2/avr5/libgcc.a(_tablejump2.o)
 .text.libgcc.mul
                0x0000000000000000        0x0 /usr/lib/gcc/avr/4.9.2/avr5/libgcc.a(_tablejump2.o)
 .text.libgcc.div
                0x0000000000000000        0x0 /usr/lib/gcc/avr/4.9.2/avr5/libgcc.a(_tablejump2.o)
 .text.libgcc.prologue
                0x0000000000000000        0x0 /usr/lib/gcc/avr/4.9.2/avr5/libgcc.a(_tablejump2.o)
 .text.libgcc.builtins
                0x0000000000000000        0x0 /usr/lib/gcc/avr/4.9.2/avr5/libgcc.a(_tablejump2.o)
 .text.libgcc.fmul
                0x0000000000000000        0x0 /usr/lib/gcc/avr/4.9.2/avr5/libgcc.a(_tablejump2.o)
 .text.libgcc.fixed
                0x0000000000000000        0x0 /usr/lib/gcc/avr/4.9.2/avr5/libgcc.a(_tablejump2.o)
 .text          0x0000000000000000        0x0 /usr/lib/gcc/avr/4.9.2/avr5/libgcc.a(_copy_data.o)
 .data          0x0000000000000000        0x0 /usr/lib/gcc/avr/4.9.2/avr5/libgcc.a(_copy_data.o)
 .bss           0x0000000000000000        0x0 /usr/lib/gcc/avr/4.9.2/avr5/libgcc.a(_copy_data.o)
 .text.libgcc.mul
                0x0000000000000000        0x0 /usr/lib/gcc/avr/4.9.2/avr5/libgcc.a(_copy_data.o)
 .text.libgcc.div
                0x0000000000000000        0x0 /usr/lib/gcc/avr/4.9.2/avr5/libgcc.a(_copy_data.o)
 .text.libgcc   0x0000000000000000        0x0 /usr/lib/gcc/avr/4.9.2/avr5/libgcc.a(_copy_data.o)
 .text.libgcc.prologue
                0x0000000000000000        0x0 /usr/lib/gcc/avr/4.9.2/avr5/libgcc.a(_copy_data.o)
 .text.libgcc.builtins
                0x0000000000000000        0x0 /usr/lib/gcc/avr/4.9.2/avr5/libgcc.a(_copy_data.o)
 .text.libgcc.fmul
                0x0000000000000000        0x0 /usr/lib/gcc/avr/4.9.2/avr5/libgcc.a(_copy_data.o)
 .text.libgcc.fixed
                0x0000000000000000        0x0 /usr/lib/gcc/avr/4.9.2/avr5/libgcc.a(_copy_data.o)
 .text          0x0000000000000000        0x0 /usr/lib/gcc/avr/4.9.2/avr5/libgcc.a(_clear_bss.o)
 .data          0x0000000000000000        0x0 /usr/lib/gcc/avr/4.9.2/avr5/libgcc.a(_clear_bss.o)
 .bss           0x0000000000000000        0x0 /usr/lib/gcc/avr/4.9.2/avr5/libgcc.a(_clear_bss.o)
 .text.libgcc.mul
                0x0000000000000000        0x0 /usr/lib/gcc/avr/4.9.2/avr5/libgcc.a(_clear_bss.o)
 .text.libgcc.div
                0x0000000000000000        0x0 /usr/lib/gcc/avr/4.9.2/avr5/libgcc.a(_clear_bss.o)
 .text.libgcc   0x0000000000000000        0x0 /usr/lib/gcc/avr/4.9.2/avr5/libgcc.a(_clear_bss.o)
 .text.libgcc.prologue
                0x0000000000000000        0x0 /usr/lib/gcc/avr/4.9.2/avr5/libgcc.a(_clear_bss.o)
 .text.libgcc.builtins
                0x0000000000000000        0x0 /usr/lib/gcc/avr/4.9.2/avr5/libgcc.a(_clear_bss.o)
 .text.libgcc.fmul
                0x0000000000000000        0x0 /usr/lib/gcc/avr/4.9.2/avr5/libgcc.a(_clear_bss.o)
 .text.libgcc.fixed
                0x0000000000000000        0x0 /usr/lib/gcc/avr/4.9.2/avr5/libgcc.a(_clear_bss.o)
 .text          0x0000000000000000        0x0 /usr/lib/gcc/avr/4.9.2/avr5/libgcc.a(_umulhisi3.o)
 .data          0x0000000000000000        0x0 /usr/lib/gcc/avr/4.9.2/avr5/libgcc.a(_umulhisi3.o)
 .bss           0x0000000000000000        0x0 /usr/lib/gcc/avr/4.9.2/avr5/libgcc.a(_umulhisi3.o)
 .text.libgcc.div
                0x0000000000000000        0x0 /usr/lib/gcc/avr/4.9.2/avr5/libgcc.a(_umulhisi3.o)
 .text.libgcc   0x0000000000000000        0x0 /usr/lib/gcc/avr/4.9.2/avr5/libgcc.a(_umulhisi3.o)
 .text.libgcc.prologue
                0x0000000000000000        0x0 /usr/lib/gcc/avr/4.9.2/avr5/libgcc.a(_umulhisi3.o)
 .text.libgcc.builtins
                0x0000000000000000        0x0 /usr/lib/gcc/avr/4.9.2/avr5/libgcc.a(_umulhisi3.o)
 .text.libgcc.fmul
                0x0000000000000000        0x0 /usr/lib/gcc/avr/4.9.2/avr5/libgcc.a(_umulhisi3.o)
 .text.libgcc.fixed
                0x0000000000000000        0x0 /usr/lib/gcc/avr/4.9.2/avr5/libgcc.a(_umulhisi3.o)
 .text          0x0000000000000000        0x0 /usr/lib/gcc/avr/4.9.2/avr5/libgcc.a(_muluhisi3.o)
 .data          0x0000000000000000        0x0 /usr/lib/gcc/avr/4.9.2/avr5/libgcc.a(_muluhisi3.o)
 .bss           0x0000000000000000        0x0 /usr/lib/gcc/avr/4.9.2/avr5/libgcc.a(_muluhisi3.o)
 .text.libgcc.div
                0x0000000000000000        0x0 /usr/lib/gcc/avr/4.9.2/avr5/libgcc.a(_muluhisi3.o)
 .text.libgcc   0x0000000000000000        0x0 /usr/lib/gcc/avr/4.9.2/avr5/libgcc.a(_muluhisi3.o)
 .text.libgcc.prologue
                0x0000000000000000        0x0 /usr/lib/gcc/avr/4.9.2/avr5/libgcc.a(_muluhisi3.o)
 .text.libgcc.builtins
                0x0000000000000000        0x0 /usr/lib/gcc/avr/4.9.2/avr5/libgcc.a(_muluhisi3.o)
 .text.libgcc.fmul
                0x0000000000000000        0x0 /usr/lib/gcc/avr/4.9.2/avr5/libgcc.a(_muluhisi3.o)
 .text.libgcc.fixed
                0x0000000000000000        0x0 /usr/lib/gcc/avr/4.9.2/avr5/libgcc.a(_muluhisi3.o)
 .text          0x0000000000000000        0x0 /usr/lib/gcc/avr/4.9.2/../../../avr/lib/avr5/libatmega32u4.a(eerd_byte.o)
 .data          0x0000000000000000        0x0 /usr/lib/gcc/avr/4.9.2/../../../avr/lib/avr5/libatmega32u4.a(eerd_byte.o)
 .bss           0x0000000000000000        0x0 /usr/lib/gcc/avr/4.9.2/../../../avr/lib/avr5/libatmega32u4.a(eerd_byte.o)
 .text          0x0000000000000000        0x0 /usr/lib/gcc/avr/4.9.2/../../../avr/lib/avr5/libatmega32u4.a(eerd_dword.o)
 .data          0x0000000000000000        0x0 /usr/lib/gcc/avr/4.9.2/../../../avr/lib/avr5/libatmega32u4.a(eerd_dword.o)
 .bss           0x0000000000000000        0x0 /usr/lib/gcc/avr/4.9.2/../../../avr/lib/avr5/libatmega32u4.a(eerd_dword.o)
 .text.avr-libc
                0x0000000000000000        0xc /usr/lib/gcc/avr/4.9.2/../../../avr/lib/avr5/libatmega32u4.a(eerd_dword.o)
 .text          0x0000000000000000        0x0 /usr/lib/gcc/avr/4.9.2/../../../avr/lib/avr5/libatmega32u4.a(eerd_word.o)
 .data          0x0000000000000000        0x0 /usr/lib/gcc/avr/4.9.2/../../../avr/lib/avr5/libatmega32u4.a(eerd_word.o)
 .bss           0x0000000000000000        0x0 /usr/lib/gcc/avr/4.9.2/../../../avr/lib/avr5/libatmega32u4.a(eerd_word.o)
 .text          0x0000000000000000        0x0 /usr/lib/gcc/avr/4.9.2/../../../avr/lib/avr5/libatmega32u4.a(eeupd_byte.o)
 .data          0x0000000000000000        0x0 /usr/lib/gcc/avr/4.9.2/../../../avr/lib/avr5/libatmega32u4.a(eeupd_byte.o)
 .bss           0x0000000000000000        0x0 /usr/lib/gcc/avr/4.9.2/../../../avr/lib/avr5/libatmega32u4.a(eeupd_byte.o)
 .text          0x0000000000000000        0x0 /usr/lib/gcc/avr/4.9.2/../../../avr/lib/avr5/libatmega32u4.a(eeupd_dword.o)
 .data          0x0000000000000000        0x0 /usr/lib/gcc/avr/4.9.2/../../../avr/lib/avr5/libatmega32u4.a(eeupd_dword.o)
 .bss           0x0000000000000000        0x0 /usr/lib/gcc/avr/4.9.2/../../../avr/lib/avr5/libatmega32u4.a(eeupd_dword.o)
 .text          0x0000000000000000        0x0 /usr/lib/gcc/avr/4.9.2/../../../avr/lib/avr5/libatmega32u4.a(eeupd_word.o)
 .data          0x0000000000000000        0x0 /usr/lib/gcc/avr/4.9.2/../../../avr/lib/avr5/libatmega32u4.a(eeupd_word.o)
 .bss           0x0000000000000000        0x0 /usr/lib/gcc/avr/4.9.2/../../../avr/lib/avr5/libatmega32u4.a(eeupd_word.o)
 .text          0x0000000000000000        0x0 /usr/lib/gcc/avr/4.9.2/../../../avr/lib/avr5/libatmega32u4.a(eerd_block.o)
 .data          0x0000000000000000        0x0 /usr/lib/gcc/avr/4.9.2/../../../avr/lib/avr5/libatmega32u4.a(eerd_block.o)
 .bss           0x0000000000000000        0x0 /usr/lib/gcc/avr/4.9.2/../../../avr/lib/avr5/libatmega32u4.a(eerd_block.o)

Memory Configuration

Name             Origin             Length             Attributes
text             0x0000000000000000 0x0000000000020000 xr
data             0x0000000000800060 0x000000000000ffa0 rw !x
eeprom           0x0000000000810000 0x0000000000010000 rw !x
fuse             0x0000000000820000 0x0000000000000400 rw !x
lock             0x0000000000830000 0x0000000000000400 rw !x
signature        0x0000000000840000 0x0000000000000400 rw !x
user_signatures  0x0000000000850000 0x0000000000000400 rw !x
*default*        0x0000000000000000 0xffffffffffffffff

Linker script and memory map

Address of section .data set to 0x800100
LOAD /usr/lib/gcc/avr/4.9.2/../../../avr/lib/avr5/crtatmega32u4.o
LOAD .build/obj_doro67_multi_taylon/keyboards/doro67/multi/multi.o
LOAD .build/obj_doro67_multi_taylon/keyboards/doro67/multi/keymaps/taylon/keymap.o
LOAD .build/obj_doro67_multi_taylon/quantum/quantum.o
LOAD .build/obj_doro67_multi_taylon/quantum/keymap_common.o
LOAD .build/obj_doro67_multi_taylon/quantum/keycode_config.o
LOAD .build/obj_doro67_multi_taylon/quantum/matrix.o
LOAD .build/obj_doro67_multi_taylon/quantum/debounce/sym_g.o
LOAD .build/obj_doro67_multi_taylon/quantum/process_keycode/process_tap_dance.o
LOAD .build/obj_doro67_multi_taylon/quantum/backlight/backlight.o
LOAD .build/obj_doro67_multi_taylon/quantum/backlight/backlight_avr.o
LOAD .build/obj_doro67_multi_taylon/quantum/process_keycode/process_space_cadet.o
LOAD .build/obj_doro67_multi_taylon/common/host.o
LOAD .build/obj_doro67_multi_taylon/common/keyboard.o
LOAD .build/obj_doro67_multi_taylon/common/action.o
LOAD .build/obj_doro67_multi_taylon/common/action_tapping.o
LOAD .build/obj_doro67_multi_taylon/common/action_macro.o
LOAD .build/obj_doro67_multi_taylon/common/action_layer.o
LOAD .build/obj_doro67_multi_taylon/common/action_util.o
LOAD .build/obj_doro67_multi_taylon/common/print.o
LOAD .build/obj_doro67_multi_taylon/common/debug.o
LOAD .build/obj_doro67_multi_taylon/common/util.o
LOAD .build/obj_doro67_multi_taylon/common/eeconfig.o
LOAD .build/obj_doro67_multi_taylon/common/report.o
LOAD .build/obj_doro67_multi_taylon/common/avr/suspend.o
LOAD .build/obj_doro67_multi_taylon/common/avr/timer.o
LOAD .build/obj_doro67_multi_taylon/common/avr/bootloader.o
LOAD .build/obj_doro67_multi_taylon/common/avr/xprintf.o
LOAD .build/obj_doro67_multi_taylon/common/magic.o
LOAD .build/obj_doro67_multi_taylon/common/mousekey.o
LOAD .build/obj_doro67_multi_taylon/lufa.o
LOAD .build/obj_doro67_multi_taylon/usb_descriptor.o
LOAD .build/obj_doro67_multi_taylon/outputselect.o
LOAD .build/obj_doro67_multi_taylon/lib/lufa/LUFA/Drivers/USB/Class/Common/HIDParser.o
LOAD .build/obj_doro67_multi_taylon/lib/lufa/LUFA/Drivers/USB/Core/AVR8/Device_AVR8.o
LOAD .build/obj_doro67_multi_taylon/lib/lufa/LUFA/Drivers/USB/Core/AVR8/EndpointStream_AVR8.o
LOAD .build/obj_doro67_multi_taylon/lib/lufa/LUFA/Drivers/USB/Core/AVR8/Endpoint_AVR8.o
LOAD .build/obj_doro67_multi_taylon/lib/lufa/LUFA/Drivers/USB/Core/AVR8/Host_AVR8.o
LOAD .build/obj_doro67_multi_taylon/lib/lufa/LUFA/Drivers/USB/Core/AVR8/PipeStream_AVR8.o
LOAD .build/obj_doro67_multi_taylon/lib/lufa/LUFA/Drivers/USB/Core/AVR8/Pipe_AVR8.o
LOAD .build/obj_doro67_multi_taylon/lib/lufa/LUFA/Drivers/USB/Core/AVR8/USBController_AVR8.o
LOAD .build/obj_doro67_multi_taylon/lib/lufa/LUFA/Drivers/USB/Core/AVR8/USBInterrupt_AVR8.o
LOAD .build/obj_doro67_multi_taylon/lib/lufa/LUFA/Drivers/USB/Core/ConfigDescriptors.o
LOAD .build/obj_doro67_multi_taylon/lib/lufa/LUFA/Drivers/USB/Core/DeviceStandardReq.o
LOAD .build/obj_doro67_multi_taylon/lib/lufa/LUFA/Drivers/USB/Core/Events.o
LOAD .build/obj_doro67_multi_taylon/lib/lufa/LUFA/Drivers/USB/Core/HostStandardReq.o
LOAD .build/obj_doro67_multi_taylon/lib/lufa/LUFA/Drivers/USB/Core/USBTask.o
LOAD /usr/lib/gcc/avr/4.9.2/../../../avr/lib/avr5/libm.a
START GROUP
LOAD /usr/lib/gcc/avr/4.9.2/avr5/libgcc.a
LOAD /usr/lib/gcc/avr/4.9.2/../../../avr/lib/avr5/libm.a
LOAD /usr/lib/gcc/avr/4.9.2/../../../avr/lib/avr5/libc.a
LOAD /usr/lib/gcc/avr/4.9.2/../../../avr/lib/avr5/libatmega32u4.a
END GROUP
                0x0000000000020000                __TEXT_REGION_LENGTH__ = DEFINED (__TEXT_REGION_LENGTH__)?__TEXT_REGION_LENGTH__:0x20000
                0x000000000000ffa0                __DATA_REGION_LENGTH__ = DEFINED (__DATA_REGION_LENGTH__)?__DATA_REGION_LENGTH__:0xffa0
                0x0000000000010000                __EEPROM_REGION_LENGTH__ = DEFINED (__EEPROM_REGION_LENGTH__)?__EEPROM_REGION_LENGTH__:0x10000
                0x0000000000000400                __FUSE_REGION_LENGTH__ = DEFINED (__FUSE_REGION_LENGTH__)?__FUSE_REGION_LENGTH__:0x400
                0x0000000000000400                __LOCK_REGION_LENGTH__ = DEFINED (__LOCK_REGION_LENGTH__)?__LOCK_REGION_LENGTH__:0x400
                0x0000000000000400                __SIGNATURE_REGION_LENGTH__ = DEFINED (__SIGNATURE_REGION_LENGTH__)?__SIGNATURE_REGION_LENGTH__:0x400
                0x0000000000000400                __USER_SIGNATURE_REGION_LENGTH__ = DEFINED (__USER_SIGNATURE_REGION_LENGTH__)?__USER_SIGNATURE_REGION_LENGTH__:0x400

.hash
 *(.hash)

.dynsym
 *(.dynsym)

.dynstr
 *(.dynstr)

.gnu.version
 *(.gnu.version)

.gnu.version_d
 *(.gnu.version_d)

.gnu.version_r
 *(.gnu.version_r)

.rel.init
 *(.rel.init)

.rela.init
 *(.rela.init)

.rel.text
 *(.rel.text)
 *(.rel.text.*)
 *(.rel.gnu.linkonce.t*)

.rela.text
 *(.rela.text)
 *(.rela.text.*)
 *(.rela.gnu.linkonce.t*)

.rel.fini
 *(.rel.fini)

.rela.fini
 *(.rela.fini)

.rel.rodata
 *(.rel.rodata)
 *(.rel.rodata.*)
 *(.rel.gnu.linkonce.r*)

.rela.rodata
 *(.rela.rodata)
 *(.rela.rodata.*)
 *(.rela.gnu.linkonce.r*)

.rel.data
 *(.rel.data)
 *(.rel.data.*)
 *(.rel.gnu.linkonce.d*)

.rela.data
 *(.rela.data)
 *(.rela.data.*)
 *(.rela.gnu.linkonce.d*)

.rel.ctors
 *(.rel.ctors)

.rela.ctors
 *(.rela.ctors)

.rel.dtors
 *(.rel.dtors)

.rela.dtors
 *(.rela.dtors)

.rel.got
 *(.rel.got)

.rela.got
 *(.rela.got)

.rel.bss
 *(.rel.bss)

.rela.bss
 *(.rela.bss)

.rel.plt
 *(.rel.plt)

.rela.plt
 *(.rela.plt)

.text           0x0000000000000000     0x4956
 *(.vectors)
 .vectors       0x0000000000000000       0xac /usr/lib/gcc/avr/4.9.2/../../../avr/lib/avr5/crtatmega32u4.o
                0x0000000000000000                __vectors
                0x0000000000000000                __vector_default
 *(.vectors)
 *(.progmem.gcc*)
 .progmem.gcc_sw_table.process_action
                0x00000000000000ac       0x20 .build/obj_doro67_multi_taylon/common/action.o
 .progmem.gcc_sw_table.is_tap_action
                0x00000000000000cc       0x1c .build/obj_doro67_multi_taylon/common/action.o
 .progmem.gcc_sw_table.USB_Device_ProcessControlRequest
                0x00000000000000e8       0x14 .build/obj_doro67_multi_taylon/lib/lufa/LUFA/Drivers/USB/Core/DeviceStandardReq.o
                0x00000000000000fc                . = ALIGN (0x2)
                0x00000000000000fc                __trampolines_start = .
 *(.trampolines)
 .trampolines   0x00000000000000fc        0x0 linker stubs
 *(.trampolines*)
                0x00000000000000fc                __trampolines_end = .
 *libprintf_flt.a:*(.progmem.data)
 *libc.a:*(.progmem.data)
 *(.progmem*)
 .progmem.data.keymaps
                0x00000000000000fc      0x258 .build/obj_doro67_multi_taylon/keyboards/doro67/multi/keymaps/taylon/keymap.o
                0x00000000000000fc                keymaps
 .progmem.data.fn_actions
                0x0000000000000354        0x0 .build/obj_doro67_multi_taylon/quantum/keymap_common.o
                0x0000000000000354                fn_actions
 .progmem.data.SerialNumberString
                0x0000000000000354        0x6 .build/obj_doro67_multi_taylon/usb_descriptor.o
                0x0000000000000354                SerialNumberString
 .progmem.data.ProductString
                0x000000000000035a       0x24 .build/obj_doro67_multi_taylon/usb_descriptor.o
                0x000000000000035a                ProductString
 .progmem.data.ManufacturerString
                0x000000000000037e       0x22 .build/obj_doro67_multi_taylon/usb_descriptor.o
                0x000000000000037e                ManufacturerString
 .progmem.data.LanguageString
                0x00000000000003a0        0x4 .build/obj_doro67_multi_taylon/usb_descriptor.o
                0x00000000000003a0                LanguageString
 .progmem.data.ConfigurationDescriptor
                0x00000000000003a4       0x3b .build/obj_doro67_multi_taylon/usb_descriptor.o
                0x00000000000003a4                ConfigurationDescriptor
 .progmem.data.DeviceDescriptor
                0x00000000000003df       0x12 .build/obj_doro67_multi_taylon/usb_descriptor.o
                0x00000000000003df                DeviceDescriptor
 .progmem.data.SharedReport
                0x00000000000003f1       0x85 .build/obj_doro67_multi_taylon/usb_descriptor.o
                0x00000000000003f1                SharedReport
 .progmem.data.KeyboardReport
                0x0000000000000476       0x40 .build/obj_doro67_multi_taylon/usb_descriptor.o
                0x0000000000000476                KeyboardReport
                0x00000000000004b6                . = ALIGN (0x2)
 *(.jumptables)
 *(.jumptables*)
 *(.lowtext)
 *(.lowtext*)
                0x00000000000004b6                __ctors_start = .
 *(.ctors)
                0x00000000000004b6                __ctors_end = .
                0x00000000000004b6                __dtors_start = .
 *(.dtors)
                0x00000000000004b6                __dtors_end = .
 SORT(*)(.ctors)
 SORT(*)(.dtors)
 *(.init0)
 .init0         0x00000000000004b6        0x0 /usr/lib/gcc/avr/4.9.2/../../../avr/lib/avr5/crtatmega32u4.o
                0x00000000000004b6                __init
 *(.init0)
 *(.init1)
 *(.init1)
 *(.init2)
 .init2         0x00000000000004b6        0xc /usr/lib/gcc/avr/4.9.2/../../../avr/lib/avr5/crtatmega32u4.o
 *(.init2)
 *(.init3)
 .init3         0x00000000000004c2       0x54 .build/obj_doro67_multi_taylon/common/avr/bootloader.o
                0x00000000000004c2                bootloader_jump_after_watchdog_reset
 *(.init3)
 *(.init4)
 .init4         0x0000000000000516       0x16 /usr/lib/gcc/avr/4.9.2/avr5/libgcc.a(_copy_data.o)
                0x0000000000000516                __do_copy_data
 .init4         0x000000000000052c       0x10 /usr/lib/gcc/avr/4.9.2/avr5/libgcc.a(_clear_bss.o)
                0x000000000000052c                __do_clear_bss
 *(.init4)
 *(.init5)
 *(.init5)
 *(.init6)
 *(.init6)
 *(.init7)
 *(.init7)
 *(.init8)
 *(.init8)
 *(.init9)
 .init9         0x000000000000053c        0x8 /usr/lib/gcc/avr/4.9.2/../../../avr/lib/avr5/crtatmega32u4.o
 *(.init9)
 *(.text)
 .text          0x0000000000000544        0x4 /usr/lib/gcc/avr/4.9.2/../../../avr/lib/avr5/crtatmega32u4.o
                0x0000000000000544                __vector_38
                0x0000000000000544                __vector_22
                0x0000000000000544                __vector_28
                0x0000000000000544                __vector_1
                0x0000000000000544                __vector_32
                0x0000000000000544                __vector_34
                0x0000000000000544                __vector_24
                0x0000000000000544                __bad_interrupt
                0x0000000000000544                __vector_6
                0x0000000000000544                __vector_31
                0x0000000000000544                __vector_35
                0x0000000000000544                __vector_39
                0x0000000000000544                __vector_3
                0x0000000000000544                __vector_23
                0x0000000000000544                __vector_30
                0x0000000000000544                __vector_25
                0x0000000000000544                __vector_13
                0x0000000000000544                __vector_17
                0x0000000000000544                __vector_19
                0x0000000000000544                __vector_7
                0x0000000000000544                __vector_41
                0x0000000000000544                __vector_27
                0x0000000000000544                __vector_5
                0x0000000000000544                __vector_33
                0x0000000000000544                __vector_37
                0x0000000000000544                __vector_4
                0x0000000000000544                __vector_9
                0x0000000000000544                __vector_2
                0x0000000000000544                __vector_15
                0x0000000000000544                __vector_36
                0x0000000000000544                __vector_29
                0x0000000000000544                __vector_40
                0x0000000000000544                __vector_8
                0x0000000000000544                __vector_26
                0x0000000000000544                __vector_14
                0x0000000000000544                __vector_16
                0x0000000000000544                __vector_18
                0x0000000000000544                __vector_20
                0x0000000000000544                __vector_42
                0x0000000000000548                . = ALIGN (0x2)
 *(.text.*)
 .text.matrix_init_kb
                0x0000000000000548        0x6 .build/obj_doro67_multi_taylon/keyboards/doro67/multi/multi.o
                0x0000000000000548                matrix_init_kb
 .text.matrix_scan_kb
                0x000000000000054e        0x4 .build/obj_doro67_multi_taylon/keyboards/doro67/multi/multi.o
                0x000000000000054e                matrix_scan_kb
 .text.process_record_kb
                0x0000000000000552        0x4 .build/obj_doro67_multi_taylon/keyboards/doro67/multi/multi.o
                0x0000000000000552                process_record_kb
 .text.led_set_kb
                0x0000000000000556        0xe .build/obj_doro67_multi_taylon/keyboards/doro67/multi/multi.o
                0x0000000000000556                led_set_kb
 .text.do_code16
                0x0000000000000564       0x5a .build/obj_doro67_multi_taylon/quantum/quantum.o
 .text.register_code16
                0x00000000000005be       0x2c .build/obj_doro67_multi_taylon/quantum/quantum.o
                0x00000000000005be                register_code16
 .text.unregister_code16
                0x00000000000005ea       0x2c .build/obj_doro67_multi_taylon/quantum/quantum.o
                0x00000000000005ea                unregister_code16
 .text.process_action_kb
                0x0000000000000616        0x4 .build/obj_doro67_multi_taylon/quantum/quantum.o
                0x0000000000000616                process_action_kb
 .text.process_record_user
                0x000000000000061a        0x4 .build/obj_doro67_multi_taylon/quantum/quantum.o
                0x000000000000061a                process_record_user
 .text.get_event_keycode
                0x000000000000061e       0x60 .build/obj_doro67_multi_taylon/quantum/quantum.o
                0x000000000000061e                get_event_keycode
 .text.get_record_keycode
                0x000000000000067e       0x10 .build/obj_doro67_multi_taylon/quantum/quantum.o
                0x000000000000067e                get_record_keycode
 .text.bootmagic_lite
                0x000000000000068e       0x2e .build/obj_doro67_multi_taylon/quantum/quantum.o
                0x000000000000068e                bootmagic_lite
 .text.matrix_init_quantum
                0x00000000000006bc       0x18 .build/obj_doro67_multi_taylon/quantum/quantum.o
                0x00000000000006bc                matrix_init_quantum
 .text.matrix_scan_quantum
                0x00000000000006d4        0xc .build/obj_doro67_multi_taylon/quantum/quantum.o
                0x00000000000006d4                matrix_scan_quantum
 .text.led_set_user
                0x00000000000006e0        0x2 .build/obj_doro67_multi_taylon/quantum/quantum.o
                0x00000000000006e0                led_set_user
 .text.led_set  0x00000000000006e2        0x4 .build/obj_doro67_multi_taylon/quantum/quantum.o
                0x00000000000006e2                led_set
 .text.shutdown_user
                0x00000000000006e6        0x2 .build/obj_doro67_multi_taylon/quantum/quantum.o
                0x00000000000006e6                shutdown_user
 .text.reset_keyboard
                0x00000000000006e8       0x1e .build/obj_doro67_multi_taylon/quantum/quantum.o
                0x00000000000006e8                reset_keyboard
 .text.process_record_quantum
                0x0000000000000706      0x384 .build/obj_doro67_multi_taylon/quantum/quantum.o
                0x0000000000000706                process_record_quantum
 .text.action_get_macro
                0x0000000000000a8a        0x6 .build/obj_doro67_multi_taylon/quantum/keymap_common.o
                0x0000000000000a8a                action_get_macro
 .text.action_function
                0x0000000000000a90        0x2 .build/obj_doro67_multi_taylon/quantum/keymap_common.o
                0x0000000000000a90                action_function
 .text.keymap_key_to_keycode
                0x0000000000000a92       0x24 .build/obj_doro67_multi_taylon/quantum/keymap_common.o
                0x0000000000000a92                keymap_key_to_keycode
 .text.keymap_function_id_to_action
                0x0000000000000ab6       0x10 .build/obj_doro67_multi_taylon/quantum/keymap_common.o
                0x0000000000000ab6                keymap_function_id_to_action
 .text.action_for_key
                0x0000000000000ac6      0x3e2 .build/obj_doro67_multi_taylon/quantum/keymap_common.o
                0x0000000000000ac6                action_for_key
 .text.keycode_config
                0x0000000000000ea8      0x128 .build/obj_doro67_multi_taylon/quantum/keycode_config.o
                0x0000000000000ea8                keycode_config
 .text.mod_config
                0x0000000000000fd0       0x86 .build/obj_doro67_multi_taylon/quantum/keycode_config.o
                0x0000000000000fd0                mod_config
 .text.matrix_init_user
                0x0000000000001056        0x2 .build/obj_doro67_multi_taylon/quantum/matrix.o
                0x0000000000001056                matrix_init_user
 .text.matrix_scan_user
                0x0000000000001058        0x2 .build/obj_doro67_multi_taylon/quantum/matrix.o
                0x0000000000001058                matrix_scan_user
 .text.matrix_get_row
                0x000000000000105a       0x12 .build/obj_doro67_multi_taylon/quantum/matrix.o
                0x000000000000105a                matrix_get_row
 .text.matrix_print
                0x000000000000106c        0x2 .build/obj_doro67_multi_taylon/quantum/matrix.o
                0x000000000000106c                matrix_print
 .text.matrix_init
                0x000000000000106e       0x96 .build/obj_doro67_multi_taylon/quantum/matrix.o
                0x000000000000106e                matrix_init
 .text.matrix_scan
                0x0000000000001104      0x12e .build/obj_doro67_multi_taylon/quantum/matrix.o
                0x0000000000001104                matrix_scan
 .text.debounce_init
                0x0000000000001232        0x2 .build/obj_doro67_multi_taylon/quantum/debounce/sym_g.o
                0x0000000000001232                debounce_init
 .text.debounce
                0x0000000000001234       0x74 .build/obj_doro67_multi_taylon/quantum/debounce/sym_g.o
                0x0000000000001234                debounce
 .text.process_tap_dance_action_on_dance_finished
                0x00000000000012a8       0x3e .build/obj_doro67_multi_taylon/quantum/process_keycode/process_tap_dance.o
 .text.qk_tap_dance_pair_on_each_tap
                0x00000000000012e6       0x22 .build/obj_doro67_multi_taylon/quantum/process_keycode/process_tap_dance.o
                0x00000000000012e6                qk_tap_dance_pair_on_each_tap
 .text.qk_tap_dance_pair_finished
                0x0000000000001308       0x20 .build/obj_doro67_multi_taylon/quantum/process_keycode/process_tap_dance.o
                0x0000000000001308                qk_tap_dance_pair_finished
 .text.qk_tap_dance_pair_reset
                0x0000000000001328       0x20 .build/obj_doro67_multi_taylon/quantum/process_keycode/process_tap_dance.o
                0x0000000000001328                qk_tap_dance_pair_reset
 .text.reset_tap_dance
                0x0000000000001348       0x8e .build/obj_doro67_multi_taylon/quantum/process_keycode/process_tap_dance.o
                0x0000000000001348                reset_tap_dance
 .text.preprocess_tap_dance
                0x00000000000013d6       0x88 .build/obj_doro67_multi_taylon/quantum/process_keycode/process_tap_dance.o
                0x00000000000013d6                preprocess_tap_dance
 .text.process_tap_dance
                0x000000000000145e       0xb8 .build/obj_doro67_multi_taylon/quantum/process_keycode/process_tap_dance.o
                0x000000000000145e                process_tap_dance
 .text.matrix_scan_tap_dance
                0x0000000000001516       0x9a .build/obj_doro67_multi_taylon/quantum/process_keycode/process_tap_dance.o
                0x0000000000001516                matrix_scan_tap_dance
 .text.backlight_init
                0x00000000000015b0       0x42 .build/obj_doro67_multi_taylon/quantum/backlight/backlight.o
                0x00000000000015b0                backlight_init
 .text.backlight_increase
                0x00000000000015f2       0x46 .build/obj_doro67_multi_taylon/quantum/backlight/backlight.o
                0x00000000000015f2                backlight_increase
 .text.backlight_decrease
                0x0000000000001638       0x44 .build/obj_doro67_multi_taylon/quantum/backlight/backlight.o
                0x0000000000001638                backlight_decrease
 .text.backlight_enable
                0x000000000000167c       0x30 .build/obj_doro67_multi_taylon/quantum/backlight/backlight.o
                0x000000000000167c                backlight_enable
 .text.backlight_disable
                0x00000000000016ac       0x1a .build/obj_doro67_multi_taylon/quantum/backlight/backlight.o
                0x00000000000016ac                backlight_disable
 .text.backlight_toggle
                0x00000000000016c6        0xe .build/obj_doro67_multi_taylon/quantum/backlight/backlight.o
                0x00000000000016c6                backlight_toggle
 .text.backlight_step
                0x00000000000016d4       0x52 .build/obj_doro67_multi_taylon/quantum/backlight/backlight.o
                0x00000000000016d4                backlight_step
 .text.backlight_level
                0x0000000000001726       0x3e .build/obj_doro67_multi_taylon/quantum/backlight/backlight.o
                0x0000000000001726                backlight_level
 .text.backlight_on
                0x0000000000001764       0x22 .build/obj_doro67_multi_taylon/quantum/backlight/backlight_avr.o
                0x0000000000001764                backlight_on
 .text.backlight_set
                0x0000000000001786       0xb8 .build/obj_doro67_multi_taylon/quantum/backlight/backlight_avr.o
                0x0000000000001786                backlight_set
 .text.backlight_task
                0x000000000000183e        0x2 .build/obj_doro67_multi_taylon/quantum/backlight/backlight_avr.o
                0x000000000000183e                backlight_task
 .text.backlight_init_ports
                0x0000000000001840       0x24 .build/obj_doro67_multi_taylon/quantum/backlight/backlight_avr.o
                0x0000000000001840                backlight_init_ports
 .text.perform_space_cadet
                0x0000000000001864       0xda .build/obj_doro67_multi_taylon/quantum/process_keycode/process_space_cadet.o
                0x0000000000001864                perform_space_cadet
 .text.process_space_cadet
                0x000000000000193e       0x82 .build/obj_doro67_multi_taylon/quantum/process_keycode/process_space_cadet.o
                0x000000000000193e                process_space_cadet
 .text.host_set_driver
                0x00000000000019c0        0xa .build/obj_doro67_multi_taylon/common/host.o
                0x00000000000019c0                host_set_driver
 .text.host_keyboard_leds
                0x00000000000019ca       0x18 .build/obj_doro67_multi_taylon/common/host.o
                0x00000000000019ca                host_keyboard_leds
 .text.host_keyboard_send
                0x00000000000019e2       0x16 .build/obj_doro67_multi_taylon/common/host.o
                0x00000000000019e2                host_keyboard_send
 .text.host_mouse_send
                0x00000000000019f8       0x1c .build/obj_doro67_multi_taylon/common/host.o
                0x00000000000019f8                host_mouse_send
 .text.host_system_send
                0x0000000000001a14       0x2c .build/obj_doro67_multi_taylon/common/host.o
                0x0000000000001a14                host_system_send
 .text.host_consumer_send
                0x0000000000001a40       0x2c .build/obj_doro67_multi_taylon/common/host.o
                0x0000000000001a40                host_consumer_send
 .text.disable_jtag
                0x0000000000001a6c        0xe .build/obj_doro67_multi_taylon/common/keyboard.o
                0x0000000000001a6c                disable_jtag
 .text.matrix_setup
                0x0000000000001a7a        0x2 .build/obj_doro67_multi_taylon/common/keyboard.o
                0x0000000000001a7a                matrix_setup
 .text.keyboard_pre_init_user
                0x0000000000001a7c        0x2 .build/obj_doro67_multi_taylon/common/keyboard.o
                0x0000000000001a7c                keyboard_pre_init_user
 .text.keyboard_pre_init_kb
                0x0000000000001a7e        0x4 .build/obj_doro67_multi_taylon/common/keyboard.o
                0x0000000000001a7e                keyboard_pre_init_kb
 .text.keyboard_post_init_user
                0x0000000000001a82        0x2 .build/obj_doro67_multi_taylon/common/keyboard.o
                0x0000000000001a82                keyboard_post_init_user
 .text.keyboard_post_init_kb
                0x0000000000001a84        0x4 .build/obj_doro67_multi_taylon/common/keyboard.o
                0x0000000000001a84                keyboard_post_init_kb
 .text.keyboard_setup
                0x0000000000001a88        0xc .build/obj_doro67_multi_taylon/common/keyboard.o
                0x0000000000001a88                keyboard_setup
 .text.is_keyboard_master
                0x0000000000001a94        0x4 .build/obj_doro67_multi_taylon/common/keyboard.o
                0x0000000000001a94                is_keyboard_master
 .text.keyboard_init
                0x0000000000001a98       0x14 .build/obj_doro67_multi_taylon/common/keyboard.o
                0x0000000000001a98                keyboard_init
 .text.keyboard_task
                0x0000000000001aac      0x17c .build/obj_doro67_multi_taylon/common/keyboard.o
                0x0000000000001aac                keyboard_task
 .text.action_exec
                0x0000000000001c28       0x5c .build/obj_doro67_multi_taylon/common/action.o
                0x0000000000001c28                action_exec
 .text.process_record_tap_hint
                0x0000000000001c84        0xc .build/obj_doro67_multi_taylon/common/action.o
                0x0000000000001c84                process_record_tap_hint
 .text.register_code
                0x0000000000001c90      0x194 .build/obj_doro67_multi_taylon/common/action.o
                0x0000000000001c90                register_code
 .text.unregister_code
                0x0000000000001e24       0x68 .build/obj_doro67_multi_taylon/common/action.o
                0x0000000000001e24                unregister_code
 .text.tap_code
                0x0000000000001e8c       0x26 .build/obj_doro67_multi_taylon/common/action.o
                0x0000000000001e8c                tap_code
 .text.register_mods
                0x0000000000001eb2        0xe .build/obj_doro67_multi_taylon/common/action.o
                0x0000000000001eb2                register_mods
 .text.unregister_mods
                0x0000000000001ec0        0xe .build/obj_doro67_multi_taylon/common/action.o
                0x0000000000001ec0                unregister_mods
 .text.process_action
                0x0000000000001ece      0x502 .build/obj_doro67_multi_taylon/common/action.o
                0x0000000000001ece                process_action
 .text.process_record
                0x00000000000023d0       0x4e .build/obj_doro67_multi_taylon/common/action.o
                0x00000000000023d0                process_record
 .text.register_weak_mods
                0x000000000000241e        0xe .build/obj_doro67_multi_taylon/common/action.o
                0x000000000000241e                register_weak_mods
 .text.unregister_weak_mods
                0x000000000000242c        0xe .build/obj_doro67_multi_taylon/common/action.o
                0x000000000000242c                unregister_weak_mods
 .text.clear_keyboard_but_mods_and_keys
                0x000000000000243a       0x24 .build/obj_doro67_multi_taylon/common/action.o
                0x000000000000243a                clear_keyboard_but_mods_and_keys
 .text.clear_keyboard_but_mods
                0x000000000000245e       0x10 .build/obj_doro67_multi_taylon/common/action.o
                0x000000000000245e                clear_keyboard_but_mods
 .text.clear_keyboard
                0x000000000000246e        0x8 .build/obj_doro67_multi_taylon/common/action.o
                0x000000000000246e                clear_keyboard
 .text.is_tap_action
                0x0000000000002476       0x44 .build/obj_doro67_multi_taylon/common/action.o
                0x0000000000002476                is_tap_action
 .text.is_tap_key
                0x00000000000024ba        0xa .build/obj_doro67_multi_taylon/common/action.o
                0x00000000000024ba                is_tap_key
 .text.debug_event
                0x00000000000024c4       0x1e .build/obj_doro67_multi_taylon/common/action.o
                0x00000000000024c4                debug_event
 .text.debug_record
                0x00000000000024e2       0x20 .build/obj_doro67_multi_taylon/common/action.o
                0x00000000000024e2                debug_record
 .text.debug_waiting_buffer
                0x0000000000002502       0x42 .build/obj_doro67_multi_taylon/common/action_tapping.o
 .text.debug_tapping_key
                0x0000000000002544       0x1c .build/obj_doro67_multi_taylon/common/action_tapping.o
 .text.waiting_buffer_scan_tap
                0x0000000000002560       0xb6 .build/obj_doro67_multi_taylon/common/action_tapping.o
 .text.process_tapping
                0x0000000000002616      0x3ac .build/obj_doro67_multi_taylon/common/action_tapping.o
 .text.action_tapping_process
                0x00000000000029c2      0x148 .build/obj_doro67_multi_taylon/common/action_tapping.o
                0x00000000000029c2                action_tapping_process
 .text.action_macro_play
                0x0000000000002b0a       0xfa .build/obj_doro67_multi_taylon/common/action_macro.o
                0x0000000000002b0a                action_macro_play
 .text.default_layer_state_set_user
                0x0000000000002c04        0x2 .build/obj_doro67_multi_taylon/common/action_layer.o
                0x0000000000002c04                default_layer_state_set_user
 .text.default_layer_state_set_kb
                0x0000000000002c06        0x4 .build/obj_doro67_multi_taylon/common/action_layer.o
                0x0000000000002c06                default_layer_state_set_kb
 .text.default_layer_state_set
                0x0000000000002c0a       0x18 .build/obj_doro67_multi_taylon/common/action_layer.o
 .text.default_layer_debug
                0x0000000000002c22        0x2 .build/obj_doro67_multi_taylon/common/action_layer.o
                0x0000000000002c22                default_layer_debug
 .text.default_layer_set
                0x0000000000002c24        0x4 .build/obj_doro67_multi_taylon/common/action_layer.o
                0x0000000000002c24                default_layer_set
 .text.default_layer_or
                0x0000000000002c28       0x24 .build/obj_doro67_multi_taylon/common/action_layer.o
                0x0000000000002c28                default_layer_or
 .text.default_layer_and
                0x0000000000002c4c       0x24 .build/obj_doro67_multi_taylon/common/action_layer.o
                0x0000000000002c4c                default_layer_and
 .text.default_layer_xor
                0x0000000000002c70       0x24 .build/obj_doro67_multi_taylon/common/action_layer.o
                0x0000000000002c70                default_layer_xor
 .text.layer_state_set_user
                0x0000000000002c94        0x2 .build/obj_doro67_multi_taylon/common/action_layer.o
                0x0000000000002c94                layer_state_set_user
 .text.layer_state_set_kb
                0x0000000000002c96        0x4 .build/obj_doro67_multi_taylon/common/action_layer.o
                0x0000000000002c96                layer_state_set_kb
 .text.layer_state_set
                0x0000000000002c9a       0x18 .build/obj_doro67_multi_taylon/common/action_layer.o
                0x0000000000002c9a                layer_state_set
 .text.layer_clear
                0x0000000000002cb2        0xa .build/obj_doro67_multi_taylon/common/action_layer.o
                0x0000000000002cb2                layer_clear
 .text.layer_move
                0x0000000000002cbc       0x2a .build/obj_doro67_multi_taylon/common/action_layer.o
                0x0000000000002cbc                layer_move
 .text.layer_on
                0x0000000000002ce6       0x42 .build/obj_doro67_multi_taylon/common/action_layer.o
                0x0000000000002ce6                layer_on
 .text.layer_off
                0x0000000000002d28       0x4a .build/obj_doro67_multi_taylon/common/action_layer.o
                0x0000000000002d28                layer_off
 .text.layer_invert
                0x0000000000002d72       0x42 .build/obj_doro67_multi_taylon/common/action_layer.o
                0x0000000000002d72                layer_invert
 .text.layer_or
                0x0000000000002db4       0x24 .build/obj_doro67_multi_taylon/common/action_layer.o
                0x0000000000002db4                layer_or
 .text.layer_and
                0x0000000000002dd8       0x24 .build/obj_doro67_multi_taylon/common/action_layer.o
                0x0000000000002dd8                layer_and
 .text.layer_xor
                0x0000000000002dfc       0x24 .build/obj_doro67_multi_taylon/common/action_layer.o
                0x0000000000002dfc                layer_xor
 .text.layer_debug
                0x0000000000002e20        0x2 .build/obj_doro67_multi_taylon/common/action_layer.o
                0x0000000000002e20                layer_debug
 .text.update_source_layers_cache
                0x0000000000002e22       0x5e .build/obj_doro67_multi_taylon/common/action_layer.o
                0x0000000000002e22                update_source_layers_cache
 .text.read_source_layers_cache
                0x0000000000002e80       0x58 .build/obj_doro67_multi_taylon/common/action_layer.o
                0x0000000000002e80                read_source_layers_cache
 .text.layer_switch_get_layer
                0x0000000000002ed8       0x82 .build/obj_doro67_multi_taylon/common/action_layer.o
                0x0000000000002ed8                layer_switch_get_layer
 .text.layer_switch_get_action
                0x0000000000002f5a       0x16 .build/obj_doro67_multi_taylon/common/action_layer.o
                0x0000000000002f5a                layer_switch_get_action
 .text.store_or_get_action
                0x0000000000002f70       0x46 .build/obj_doro67_multi_taylon/common/action_layer.o
                0x0000000000002f70                store_or_get_action
 .text.get_oneshot_layer
                0x0000000000002fb6        0xc .build/obj_doro67_multi_taylon/common/action_util.o
                0x0000000000002fb6                get_oneshot_layer
 .text.get_oneshot_layer_state
                0x0000000000002fc2        0x8 .build/obj_doro67_multi_taylon/common/action_util.o
                0x0000000000002fc2                get_oneshot_layer_state
 .text.is_oneshot_layer_active
                0x0000000000002fca        0xe .build/obj_doro67_multi_taylon/common/action_util.o
                0x0000000000002fca                is_oneshot_layer_active
 .text.get_mods
                0x0000000000002fd8        0x6 .build/obj_doro67_multi_taylon/common/action_util.o
                0x0000000000002fd8                get_mods
 .text.add_mods
                0x0000000000002fde        0xc .build/obj_doro67_multi_taylon/common/action_util.o
                0x0000000000002fde                add_mods
 .text.del_mods
                0x0000000000002fea        0xe .build/obj_doro67_multi_taylon/common/action_util.o
                0x0000000000002fea                del_mods
 .text.clear_mods
                0x0000000000002ff8        0x6 .build/obj_doro67_multi_taylon/common/action_util.o
                0x0000000000002ff8                clear_mods
 .text.get_weak_mods
                0x0000000000002ffe        0x6 .build/obj_doro67_multi_taylon/common/action_util.o
                0x0000000000002ffe                get_weak_mods
 .text.add_weak_mods
                0x0000000000003004        0xc .build/obj_doro67_multi_taylon/common/action_util.o
                0x0000000000003004                add_weak_mods
 .text.del_weak_mods
                0x0000000000003010        0xe .build/obj_doro67_multi_taylon/common/action_util.o
                0x0000000000003010                del_weak_mods
 .text.clear_weak_mods
                0x000000000000301e        0x6 .build/obj_doro67_multi_taylon/common/action_util.o
                0x000000000000301e                clear_weak_mods
 .text.add_macro_mods
                0x0000000000003024        0xc .build/obj_doro67_multi_taylon/common/action_util.o
                0x0000000000003024                add_macro_mods
 .text.del_macro_mods
                0x0000000000003030        0xe .build/obj_doro67_multi_taylon/common/action_util.o
                0x0000000000003030                del_macro_mods
 .text.clear_macro_mods
                0x000000000000303e        0x6 .build/obj_doro67_multi_taylon/common/action_util.o
                0x000000000000303e                clear_macro_mods
 .text.get_oneshot_mods
                0x0000000000003044        0x6 .build/obj_doro67_multi_taylon/common/action_util.o
                0x0000000000003044                get_oneshot_mods
 .text.oneshot_mods_changed_user
                0x000000000000304a        0x2 .build/obj_doro67_multi_taylon/common/action_util.o
                0x000000000000304a                oneshot_mods_changed_user
 .text.oneshot_mods_changed_kb
                0x000000000000304c        0x4 .build/obj_doro67_multi_taylon/common/action_util.o
                0x000000000000304c                oneshot_mods_changed_kb
 .text.set_oneshot_mods
                0x0000000000003050       0x12 .build/obj_doro67_multi_taylon/common/action_util.o
                0x0000000000003050                set_oneshot_mods
 .text.clear_oneshot_mods
                0x0000000000003062       0x14 .build/obj_doro67_multi_taylon/common/action_util.o
                0x0000000000003062                clear_oneshot_mods
 .text.send_keyboard_report
                0x0000000000003076       0x66 .build/obj_doro67_multi_taylon/common/action_util.o
                0x0000000000003076                send_keyboard_report
 .text.oneshot_layer_changed_user
                0x00000000000030dc        0x2 .build/obj_doro67_multi_taylon/common/action_util.o
                0x00000000000030dc                oneshot_layer_changed_user
 .text.oneshot_layer_changed_kb
                0x00000000000030de        0x4 .build/obj_doro67_multi_taylon/common/action_util.o
                0x00000000000030de                oneshot_layer_changed_kb
 .text.set_oneshot_layer
                0x00000000000030e2       0x20 .build/obj_doro67_multi_taylon/common/action_util.o
                0x00000000000030e2                set_oneshot_layer
 .text.reset_oneshot_layer
                0x0000000000003102        0xa .build/obj_doro67_multi_taylon/common/action_util.o
                0x0000000000003102                reset_oneshot_layer
 .text.clear_oneshot_layer_state
                0x000000000000310c       0x32 .build/obj_doro67_multi_taylon/common/action_util.o
                0x000000000000310c                clear_oneshot_layer_state
 .text.eeconfig_disable
                0x000000000000313e        0xc .build/obj_doro67_multi_taylon/common/eeconfig.o
                0x000000000000313e                eeconfig_disable
 .text.eeconfig_is_enabled
                0x000000000000314a       0x16 .build/obj_doro67_multi_taylon/common/eeconfig.o
                0x000000000000314a                eeconfig_is_enabled
 .text.eeconfig_read_debug
                0x0000000000003160        0x8 .build/obj_doro67_multi_taylon/common/eeconfig.o
                0x0000000000003160                eeconfig_read_debug
 .text.eeconfig_read_default_layer
                0x0000000000003168        0x8 .build/obj_doro67_multi_taylon/common/eeconfig.o
                0x0000000000003168                eeconfig_read_default_layer
 .text.eeconfig_read_keymap
                0x0000000000003170       0x22 .build/obj_doro67_multi_taylon/common/eeconfig.o
                0x0000000000003170                eeconfig_read_keymap
 .text.eeconfig_update_keymap
                0x0000000000003192       0x1a .build/obj_doro67_multi_taylon/common/eeconfig.o
                0x0000000000003192                eeconfig_update_keymap
 .text.eeconfig_read_backlight
                0x00000000000031ac        0x8 .build/obj_doro67_multi_taylon/common/eeconfig.o
                0x00000000000031ac                eeconfig_read_backlight
 .text.eeconfig_update_backlight
                0x00000000000031b4        0xa .build/obj_doro67_multi_taylon/common/eeconfig.o
                0x00000000000031b4                eeconfig_update_backlight
 .text.eeconfig_update_kb
                0x00000000000031be        0xc .build/obj_doro67_multi_taylon/common/eeconfig.o
                0x00000000000031be                eeconfig_update_kb
 .text.eeconfig_update_user
                0x00000000000031ca        0xc .build/obj_doro67_multi_taylon/common/eeconfig.o
                0x00000000000031ca                eeconfig_update_user
 .text.eeconfig_init_user
                0x00000000000031d6        0xa .build/obj_doro67_multi_taylon/common/eeconfig.o
                0x00000000000031d6                eeconfig_init_user
 .text.eeconfig_init_kb
                0x00000000000031e0        0xe .build/obj_doro67_multi_taylon/common/eeconfig.o
                0x00000000000031e0                eeconfig_init_kb
 .text.eeconfig_init_quantum
                0x00000000000031ee       0xae .build/obj_doro67_multi_taylon/common/eeconfig.o
                0x00000000000031ee                eeconfig_init_quantum
 .text.eeconfig_init
                0x000000000000329c        0x4 .build/obj_doro67_multi_taylon/common/eeconfig.o
                0x000000000000329c                eeconfig_init
 .text.eeconfig_update_handedness
                0x00000000000032a0        0xa .build/obj_doro67_multi_taylon/common/eeconfig.o
                0x00000000000032a0                eeconfig_update_handedness
 .text.has_anykey
                0x00000000000032aa       0x18 .build/obj_doro67_multi_taylon/common/report.o
                0x00000000000032aa                has_anykey
 .text.add_key_byte
                0x00000000000032c2       0x34 .build/obj_doro67_multi_taylon/common/report.o
                0x00000000000032c2                add_key_byte
 .text.del_key_byte
                0x00000000000032f6       0x18 .build/obj_doro67_multi_taylon/common/report.o
                0x00000000000032f6                del_key_byte
 .text.add_key_to_report
                0x000000000000330e        0x4 .build/obj_doro67_multi_taylon/common/report.o
                0x000000000000330e                add_key_to_report
 .text.del_key_from_report
                0x0000000000003312        0x4 .build/obj_doro67_multi_taylon/common/report.o
                0x0000000000003312                del_key_from_report
 .text.clear_keys_from_report
                0x0000000000003316        0xe .build/obj_doro67_multi_taylon/common/report.o
                0x0000000000003316                clear_keys_from_report
 .text.suspend_power_down_user
                0x0000000000003324        0x2 .build/obj_doro67_multi_taylon/common/avr/suspend.o
                0x0000000000003324                suspend_power_down_user
 .text.suspend_power_down_kb
                0x0000000000003326        0x4 .build/obj_doro67_multi_taylon/common/avr/suspend.o
                0x0000000000003326                suspend_power_down_kb
 .text.suspend_power_down
                0x000000000000332a       0x66 .build/obj_doro67_multi_taylon/common/avr/suspend.o
                0x000000000000332a                suspend_power_down
 .text.matrix_power_up
                0x0000000000003390        0x2 .build/obj_doro67_multi_taylon/common/avr/suspend.o
                0x0000000000003390                matrix_power_up
 .text.matrix_power_down
                0x0000000000003392        0x2 .build/obj_doro67_multi_taylon/common/avr/suspend.o
                0x0000000000003392                matrix_power_down
 .text.suspend_wakeup_condition
                0x0000000000003394       0x2a .build/obj_doro67_multi_taylon/common/avr/suspend.o
                0x0000000000003394                suspend_wakeup_condition
 .text.suspend_wakeup_init_user
                0x00000000000033be        0x2 .build/obj_doro67_multi_taylon/common/avr/suspend.o
                0x00000000000033be                suspend_wakeup_init_user
 .text.suspend_wakeup_init_kb
                0x00000000000033c0        0x4 .build/obj_doro67_multi_taylon/common/avr/suspend.o
                0x00000000000033c0                suspend_wakeup_init_kb
 .text.suspend_wakeup_init
                0x00000000000033c4       0x14 .build/obj_doro67_multi_taylon/common/avr/suspend.o
                0x00000000000033c4                suspend_wakeup_init
 .text.__vector_12
                0x00000000000033d8       0x52 .build/obj_doro67_multi_taylon/common/avr/suspend.o
                0x00000000000033d8                __vector_12
 .text.timer_init
                0x000000000000342a       0x12 .build/obj_doro67_multi_taylon/common/avr/timer.o
                0x000000000000342a                timer_init
 .text.timer_read
                0x000000000000343c       0x18 .build/obj_doro67_multi_taylon/common/avr/timer.o
                0x000000000000343c                timer_read
 .text.timer_elapsed
                0x0000000000003454       0x54 .build/obj_doro67_multi_taylon/common/avr/timer.o
                0x0000000000003454                timer_elapsed
 .text.__vector_21
                0x00000000000034a8       0x4c .build/obj_doro67_multi_taylon/common/avr/timer.o
                0x00000000000034a8                __vector_21
 .text.bootloader_jump
                0x00000000000034f4       0x48 .build/obj_doro67_multi_taylon/common/avr/bootloader.o
                0x00000000000034f4                bootloader_jump
 .text.magic    0x000000000000353c       0x30 .build/obj_doro67_multi_taylon/common/magic.o
                0x000000000000353c                magic
 .text.move_unit
                0x000000000000356c       0x92 .build/obj_doro67_multi_taylon/common/mousekey.o
 .text.wheel_unit
                0x00000000000035fe       0x72 .build/obj_doro67_multi_taylon/common/mousekey.o
 .text.mousekey_on
                0x0000000000003670       0xd0 .build/obj_doro67_multi_taylon/common/mousekey.o
                0x0000000000003670                mousekey_on
 .text.mousekey_off
                0x0000000000003740      0x10a .build/obj_doro67_multi_taylon/common/mousekey.o
                0x0000000000003740                mousekey_off
 .text.mousekey_send
                0x000000000000384a       0x16 .build/obj_doro67_multi_taylon/common/mousekey.o
                0x000000000000384a                mousekey_send
 .text.mousekey_task
                0x0000000000003860      0x136 .build/obj_doro67_multi_taylon/common/mousekey.o
                0x0000000000003860                mousekey_task
 .text.mousekey_clear
                0x0000000000003996       0x18 .build/obj_doro67_multi_taylon/common/mousekey.o
                0x0000000000003996                mousekey_clear
 .text.keyboard_leds
                0x00000000000039ae        0x6 .build/obj_doro67_multi_taylon/lufa.o
 .text.send_consumer
                0x00000000000039b4       0x76 .build/obj_doro67_multi_taylon/lufa.o
 .text.send_system
                0x0000000000003a2a       0x6c .build/obj_doro67_multi_taylon/lufa.o
 .text.send_mouse
                0x0000000000003a96       0x56 .build/obj_doro67_multi_taylon/lufa.o
 .text.send_keyboard
                0x0000000000003aec       0x66 .build/obj_doro67_multi_taylon/lufa.o
 .text.EVENT_USB_Device_Connect
                0x0000000000003b52       0x1c .build/obj_doro67_multi_taylon/lufa.o
                0x0000000000003b52                EVENT_USB_Device_Connect
 .text.EVENT_USB_Device_Disconnect
                0x0000000000003b6e        0x6 .build/obj_doro67_multi_taylon/lufa.o
                0x0000000000003b6e                EVENT_USB_Device_Disconnect
 .text.EVENT_USB_Device_Reset
                0x0000000000003b74        0x2 .build/obj_doro67_multi_taylon/lufa.o
                0x0000000000003b74                EVENT_USB_Device_Reset
 .text.EVENT_USB_Device_Suspend
                0x0000000000003b76        0x2 .build/obj_doro67_multi_taylon/lufa.o
                0x0000000000003b76                EVENT_USB_Device_Suspend
 .text.EVENT_USB_Device_WakeUp
                0x0000000000003b78        0x4 .build/obj_doro67_multi_taylon/lufa.o
                0x0000000000003b78                EVENT_USB_Device_WakeUp
 .text.EVENT_USB_Device_ConfigurationChanged
                0x0000000000003b7c       0x14 .build/obj_doro67_multi_taylon/lufa.o
                0x0000000000003b7c                EVENT_USB_Device_ConfigurationChanged
 .text.EVENT_USB_Device_ControlRequest
                0x0000000000003b90      0x17a .build/obj_doro67_multi_taylon/lufa.o
                0x0000000000003b90                EVENT_USB_Device_ControlRequest
 .text.startup.main
                0x0000000000003d0a       0x76 .build/obj_doro67_multi_taylon/lufa.o
                0x0000000000003d0a                main
 .text.CALLBACK_USB_GetDescriptor
                0x0000000000003d80        0x4 .build/obj_doro67_multi_taylon/lufa.o
                0x0000000000003d80                CALLBACK_USB_GetDescriptor
 .text.get_usb_descriptor
                0x0000000000003d84       0xc2 .build/obj_doro67_multi_taylon/usb_descriptor.o
                0x0000000000003d84                get_usb_descriptor
 .text.set_output_user
                0x0000000000003e46        0x2 .build/obj_doro67_multi_taylon/outputselect.o
                0x0000000000003e46                set_output_user
 .text.set_output
                0x0000000000003e48       0x10 .build/obj_doro67_multi_taylon/outputselect.o
                0x0000000000003e48                set_output
 .text.auto_detect_output
                0x0000000000003e58       0x10 .build/obj_doro67_multi_taylon/outputselect.o
                0x0000000000003e58                auto_detect_output
 .text.where_to_send
                0x0000000000003e68        0xe .build/obj_doro67_multi_taylon/outputselect.o
                0x0000000000003e68                where_to_send
 .text.USB_Device_SendRemoteWakeup
                0x0000000000003e76       0x2c .build/obj_doro67_multi_taylon/lib/lufa/LUFA/Drivers/USB/Core/AVR8/Device_AVR8.o
                0x0000000000003e76                USB_Device_SendRemoteWakeup
 .text.Endpoint_Write_Stream_LE
                0x0000000000003ea2       0x96 .build/obj_doro67_multi_taylon/lib/lufa/LUFA/Drivers/USB/Core/AVR8/EndpointStream_AVR8.o
                0x0000000000003ea2                Endpoint_Write_Stream_LE
 .text.Endpoint_Write_Control_Stream_LE
                0x0000000000003f38       0xc6 .build/obj_doro67_multi_taylon/lib/lufa/LUFA/Drivers/USB/Core/AVR8/EndpointStream_AVR8.o
                0x0000000000003f38                Endpoint_Write_Control_Stream_LE
 .text.Endpoint_Write_Control_PStream_LE
                0x0000000000003ffe       0xc2 .build/obj_doro67_multi_taylon/lib/lufa/LUFA/Drivers/USB/Core/AVR8/EndpointStream_AVR8.o
                0x0000000000003ffe                Endpoint_Write_Control_PStream_LE
 .text.Endpoint_ConfigureEndpoint_Prv
                0x00000000000040c0       0x6a .build/obj_doro67_multi_taylon/lib/lufa/LUFA/Drivers/USB/Core/AVR8/Endpoint_AVR8.o
                0x00000000000040c0                Endpoint_ConfigureEndpoint_Prv
 .text.Endpoint_ClearStatusStage
                0x000000000000412a       0x3e .build/obj_doro67_multi_taylon/lib/lufa/LUFA/Drivers/USB/Core/AVR8/Endpoint_AVR8.o
                0x000000000000412a                Endpoint_ClearStatusStage
 .text.Endpoint_WaitUntilReady
                0x0000000000004168       0x64 .build/obj_doro67_multi_taylon/lib/lufa/LUFA/Drivers/USB/Core/AVR8/Endpoint_AVR8.o
                0x0000000000004168                Endpoint_WaitUntilReady
 .text.USB_Disable
                0x00000000000041cc       0x34 .build/obj_doro67_multi_taylon/lib/lufa/LUFA/Drivers/USB/Core/AVR8/USBController_AVR8.o
                0x00000000000041cc                USB_Disable
 .text.USB_ResetInterface
                0x0000000000004200       0x86 .build/obj_doro67_multi_taylon/lib/lufa/LUFA/Drivers/USB/Core/AVR8/USBController_AVR8.o
                0x0000000000004200                USB_ResetInterface
 .text.USB_Init
                0x0000000000004286       0x22 .build/obj_doro67_multi_taylon/lib/lufa/LUFA/Drivers/USB/Core/AVR8/USBController_AVR8.o
                0x0000000000004286                USB_Init
 .text.USB_INT_DisableAllInterrupts
                0x00000000000042a8       0x10 .build/obj_doro67_multi_taylon/lib/lufa/LUFA/Drivers/USB/Core/AVR8/USBInterrupt_AVR8.o
                0x00000000000042a8                USB_INT_DisableAllInterrupts
 .text.USB_INT_ClearAllInterrupts
                0x00000000000042b8        0xa .build/obj_doro67_multi_taylon/lib/lufa/LUFA/Drivers/USB/Core/AVR8/USBInterrupt_AVR8.o
                0x00000000000042b8                USB_INT_ClearAllInterrupts
 .text.__vector_10
                0x00000000000042c2      0x1a4 .build/obj_doro67_multi_taylon/lib/lufa/LUFA/Drivers/USB/Core/AVR8/USBInterrupt_AVR8.o
                0x00000000000042c2                __vector_10
 .text.__vector_11
                0x0000000000004466       0x88 .build/obj_doro67_multi_taylon/lib/lufa/LUFA/Drivers/USB/Core/AVR8/USBInterrupt_AVR8.o
                0x0000000000004466                __vector_11
 .text.USB_Device_ProcessControlRequest
                0x00000000000044ee      0x2b4 .build/obj_doro67_multi_taylon/lib/lufa/LUFA/Drivers/USB/Core/DeviceStandardReq.o
                0x00000000000044ee                USB_Device_ProcessControlRequest
 .text.USB_Event_Stub
                0x00000000000047a2        0x2 .build/obj_doro67_multi_taylon/lib/lufa/LUFA/Drivers/USB/Core/Events.o
                0x00000000000047a2                USB_Event_Stub
                0x00000000000047a2                EVENT_USB_Device_StartOfFrame
 .text.USB_USBTask
                0x00000000000047a4       0x36 .build/obj_doro67_multi_taylon/lib/lufa/LUFA/Drivers/USB/Core/USBTask.o
                0x00000000000047a4                USB_USBTask
 .text.libgcc.mul
                0x00000000000047da       0x20 /usr/lib/gcc/avr/4.9.2/avr5/libgcc.a(_mulsi3.o)
                0x00000000000047da                __mulsi3
 .text.libgcc.div
                0x00000000000047fa       0x28 /usr/lib/gcc/avr/4.9.2/avr5/libgcc.a(_udivmodhi4.o)
                0x00000000000047fa                __udivmodhi4
 .text.libgcc.div
                0x0000000000004822       0x28 /usr/lib/gcc/avr/4.9.2/avr5/libgcc.a(_divmodhi4.o)
                0x0000000000004822                __divmodhi4
                0x0000000000004822                _div
 .text.libgcc.div
                0x000000000000484a       0x44 /usr/lib/gcc/avr/4.9.2/avr5/libgcc.a(_udivmodsi4.o)
                0x000000000000484a                __udivmodsi4
 .text.libgcc   0x000000000000488e        0xc /usr/lib/gcc/avr/4.9.2/avr5/libgcc.a(_tablejump2.o)
                0x000000000000488e                __tablejump2__
 .text.libgcc.mul
                0x000000000000489a       0x1e /usr/lib/gcc/avr/4.9.2/avr5/libgcc.a(_umulhisi3.o)
                0x000000000000489a                __umulhisi3
 .text.libgcc.mul
                0x00000000000048b8       0x16 /usr/lib/gcc/avr/4.9.2/avr5/libgcc.a(_muluhisi3.o)
                0x00000000000048b8                __muluhisi3
 .text.avr-libc
                0x00000000000048ce       0x10 /usr/lib/gcc/avr/4.9.2/../../../avr/lib/avr5/libatmega32u4.a(eerd_byte.o)
                0x00000000000048ce                eeprom_read_byte
 .text.avr-libc
                0x00000000000048de        0xc /usr/lib/gcc/avr/4.9.2/../../../avr/lib/avr5/libatmega32u4.a(eerd_word.o)
                0x00000000000048de                eeprom_read_word
 .text.avr-libc
                0x00000000000048ea       0x24 /usr/lib/gcc/avr/4.9.2/../../../avr/lib/avr5/libatmega32u4.a(eeupd_byte.o)
                0x00000000000048ea                eeprom_update_byte
                0x00000000000048ec                eeprom_update_r18
 .text.avr-libc
                0x000000000000490e       0x18 /usr/lib/gcc/avr/4.9.2/../../../avr/lib/avr5/libatmega32u4.a(eeupd_dword.o)
                0x000000000000490e                eeprom_update_dword
                0x000000000000490e                eeprom_update_float
 .text.avr-libc
                0x0000000000004926        0xc /usr/lib/gcc/avr/4.9.2/../../../avr/lib/avr5/libatmega32u4.a(eeupd_word.o)
                0x0000000000004926                eeprom_update_word
 .text.avr-libc
                0x0000000000004932       0x20 /usr/lib/gcc/avr/4.9.2/../../../avr/lib/avr5/libatmega32u4.a(eerd_block.o)
                0x0000000000004932                eeprom_read_block
                0x0000000000004936                eeprom_read_blraw
                0x0000000000004952                . = ALIGN (0x2)
 *(.fini9)
 .fini9         0x0000000000004952        0x0 /usr/lib/gcc/avr/4.9.2/avr5/libgcc.a(_exit.o)
                0x0000000000004952                exit
                0x0000000000004952                _exit
 *(.fini9)
 *(.fini8)
 *(.fini8)
 *(.fini7)
 *(.fini7)
 *(.fini6)
 *(.fini6)
 *(.fini5)
 *(.fini5)
 *(.fini4)
 *(.fini4)
 *(.fini3)
 *(.fini3)
 *(.fini2)
 *(.fini2)
 *(.fini1)
 *(.fini1)
 *(.fini0)
 .fini0         0x0000000000004952        0x4 /usr/lib/gcc/avr/4.9.2/avr5/libgcc.a(_exit.o)
 *(.fini0)
                0x0000000000004956                _etext = .

.data           0x0000000000800100       0x76 load address 0x0000000000004956
                0x0000000000800100                PROVIDE (__data_start, .)
 *(.data)
 *(.data*)
 .data.tap_dance_actions
                0x0000000000800100       0x42 .build/obj_doro67_multi_taylon/keyboards/doro67/multi/keymaps/taylon/keymap.o
                0x0000000000800100                tap_dance_actions
 .data.__compound_literal.2
                0x0000000000800142        0x4 .build/obj_doro67_multi_taylon/keyboards/doro67/multi/keymaps/taylon/keymap.o
 .data.__compound_literal.1
                0x0000000000800146        0x4 .build/obj_doro67_multi_taylon/keyboards/doro67/multi/keymaps/taylon/keymap.o
 .data.__compound_literal.0
                0x000000000080014a        0x4 .build/obj_doro67_multi_taylon/keyboards/doro67/multi/keymaps/taylon/keymap.o
 .data.highest_td
                0x000000000080014e        0x1 .build/obj_doro67_multi_taylon/quantum/process_keycode/process_tap_dance.o
 .data.keyboard_report
                0x000000000080014f        0x2 .build/obj_doro67_multi_taylon/common/action_util.o
                0x000000000080014f                keyboard_report
 .data.mk_wheel_time_to_max
                0x0000000000800151        0x1 .build/obj_doro67_multi_taylon/common/mousekey.o
                0x0000000000800151                mk_wheel_time_to_max
 .data.mk_wheel_max_speed
                0x0000000000800152        0x1 .build/obj_doro67_multi_taylon/common/mousekey.o
                0x0000000000800152                mk_wheel_max_speed
 .data.mk_time_to_max
                0x0000000000800153        0x1 .build/obj_doro67_multi_taylon/common/mousekey.o
                0x0000000000800153                mk_time_to_max
 .data.mk_max_speed
                0x0000000000800154        0x1 .build/obj_doro67_multi_taylon/common/mousekey.o
                0x0000000000800154                mk_max_speed
 .data.mk_interval
                0x0000000000800155        0x1 .build/obj_doro67_multi_taylon/common/mousekey.o
                0x0000000000800155                mk_interval
 .data.mk_delay
                0x0000000000800156        0x1 .build/obj_doro67_multi_taylon/common/mousekey.o
                0x0000000000800156                mk_delay
 .data.lufa_driver
                0x0000000000800157        0xa .build/obj_doro67_multi_taylon/lufa.o
                0x0000000000800157                lufa_driver
 .data.keyboard_protocol
                0x0000000000800161        0x1 .build/obj_doro67_multi_taylon/lufa.o
                0x0000000000800161                keyboard_protocol
 *(.rodata)
 *(.rodata*)
 .rodata.col_pins
                0x0000000000800162        0xf .build/obj_doro67_multi_taylon/quantum/matrix.o
 .rodata.row_pins
                0x0000000000800171        0x5 .build/obj_doro67_multi_taylon/quantum/matrix.o
 *(.gnu.linkonce.d*)
                0x0000000000800176                . = ALIGN (0x2)
                0x0000000000800176                _edata = .
                0x0000000000800176                PROVIDE (__data_end, .)

.bss            0x0000000000800176       0xdb
                0x0000000000800176                PROVIDE (__bss_start, .)
 *(.bss)
 *(.bss*)
 .bss.grave_esc_was_shifted
                0x0000000000800176        0x1 .build/obj_doro67_multi_taylon/quantum/quantum.o
 .bss.matrix    0x0000000000800177        0xa .build/obj_doro67_multi_taylon/quantum/matrix.o
 .bss.raw_matrix
                0x0000000000800181        0xa .build/obj_doro67_multi_taylon/quantum/matrix.o
 .bss.debouncing_time
                0x000000000080018b        0x2 .build/obj_doro67_multi_taylon/quantum/debounce/sym_g.o
 .bss.debouncing
                0x000000000080018d        0x1 .build/obj_doro67_multi_taylon/quantum/debounce/sym_g.o
 .bss.last_td   0x000000000080018e        0x2 .build/obj_doro67_multi_taylon/quantum/process_keycode/process_tap_dance.o
 .bss.sc_timer  0x0000000000800190        0x2 .build/obj_doro67_multi_taylon/quantum/process_keycode/process_space_cadet.o
 .bss.sc_last   0x0000000000800192        0x1 .build/obj_doro67_multi_taylon/quantum/process_keycode/process_space_cadet.o
 .bss.last_consumer_report
                0x0000000000800193        0x2 .build/obj_doro67_multi_taylon/common/host.o
 .bss.last_system_report
                0x0000000000800195        0x2 .build/obj_doro67_multi_taylon/common/host.o
 .bss.driver    0x0000000000800197        0x2 .build/obj_doro67_multi_taylon/common/host.o
 .bss.led_status.2885
                0x0000000000800199        0x1 .build/obj_doro67_multi_taylon/common/keyboard.o
 .bss.matrix_prev.2884
                0x000000000080019a        0xa .build/obj_doro67_multi_taylon/common/keyboard.o
 .bss.disable_action_cache
                0x00000000008001a4        0x1 .build/obj_doro67_multi_taylon/common/action.o
                0x00000000008001a4                disable_action_cache
 .bss.waiting_buffer_tail
                0x00000000008001a5        0x1 .build/obj_doro67_multi_taylon/common/action_tapping.o
 .bss.waiting_buffer_head
                0x00000000008001a6        0x1 .build/obj_doro67_multi_taylon/common/action_tapping.o
 .bss.waiting_buffer
                0x00000000008001a7       0x30 .build/obj_doro67_multi_taylon/common/action_tapping.o
 .bss.tapping_key
                0x00000000008001d7        0x6 .build/obj_doro67_multi_taylon/common/action_tapping.o
 .bss.source_layers_cache
                0x00000000008001dd       0x32 .build/obj_doro67_multi_taylon/common/action_layer.o
                0x00000000008001dd                source_layers_cache
 .bss.layer_state
                0x000000000080020f        0x4 .build/obj_doro67_multi_taylon/common/action_layer.o
                0x000000000080020f                layer_state
 .bss.default_layer_state
                0x0000000000800213        0x4 .build/obj_doro67_multi_taylon/common/action_layer.o
                0x0000000000800213                default_layer_state
 .bss.oneshot_layer_data
                0x0000000000800217        0x1 .build/obj_doro67_multi_taylon/common/action_util.o
 .bss.oneshot_mods
                0x0000000000800218        0x1 .build/obj_doro67_multi_taylon/common/action_util.o
 .bss.__compound_literal.0
                0x0000000000800219        0x8 .build/obj_doro67_multi_taylon/common/action_util.o
 .bss.macro_mods
                0x0000000000800221        0x1 .build/obj_doro67_multi_taylon/common/action_util.o
 .bss.weak_mods
                0x0000000000800222        0x1 .build/obj_doro67_multi_taylon/common/action_util.o
 .bss.real_mods
                0x0000000000800223        0x1 .build/obj_doro67_multi_taylon/common/action_util.o
 .bss.debug_config
                0x0000000000800224        0x1 .build/obj_doro67_multi_taylon/common/debug.o
                0x0000000000800224                debug_config
 .bss.wdt_timeout
                0x0000000000800225        0x1 .build/obj_doro67_multi_taylon/common/avr/suspend.o
 .bss.last_timer
                0x0000000000800226        0x2 .build/obj_doro67_multi_taylon/common/mousekey.o
 .bss.mousekey_repeat
                0x0000000000800228        0x1 .build/obj_doro67_multi_taylon/common/mousekey.o
 .bss.mousekey_accel
                0x0000000000800229        0x1 .build/obj_doro67_multi_taylon/common/mousekey.o
 .bss.mouse_report
                0x000000000080022a        0x6 .build/obj_doro67_multi_taylon/common/mousekey.o
 .bss.keyboard_report_sent
                0x0000000000800230        0x8 .build/obj_doro67_multi_taylon/lufa.o
 .bss.keyboard_led_stats
                0x0000000000800238        0x1 .build/obj_doro67_multi_taylon/lufa.o
 .bss.keyboard_idle
                0x0000000000800239        0x1 .build/obj_doro67_multi_taylon/lufa.o
                0x0000000000800239                keyboard_idle
 .bss.desired_output
                0x000000000080023a        0x1 .build/obj_doro67_multi_taylon/outputselect.o
                0x000000000080023a                desired_output
 *(COMMON)
 COMMON         0x000000000080023b        0x1 .build/obj_doro67_multi_taylon/quantum/backlight/backlight.o
                0x000000000080023b                backlight_config
 COMMON         0x000000000080023c        0x2 .build/obj_doro67_multi_taylon/common/action.o
                0x000000000080023c                tp_buttons
 COMMON         0x000000000080023e        0x4 .build/obj_doro67_multi_taylon/common/avr/timer.o
                0x000000000080023e                timer_count
 COMMON         0x0000000000800242        0x2 .build/obj_doro67_multi_taylon/common/magic.o
                0x0000000000800242                keymap_config
 COMMON         0x0000000000800244        0x3 .build/obj_doro67_multi_taylon/lib/lufa/LUFA/Drivers/USB/Core/DeviceStandardReq.o
                0x0000000000800244                USB_Device_ConfigurationNumber
                0x0000000000800245                USB_Device_CurrentlySelfPowered
                0x0000000000800246                USB_Device_RemoteWakeupEnabled
 COMMON         0x0000000000800247        0xa .build/obj_doro67_multi_taylon/lib/lufa/LUFA/Drivers/USB/Core/USBTask.o
                0x0000000000800247                USB_IsInitialized
                0x0000000000800248                USB_DeviceState
                0x0000000000800249                USB_ControlRequest
                0x0000000000800251                PROVIDE (__bss_end, .)
                0x0000000000004956                __data_load_start = LOADADDR (.data)
                0x00000000000049cc                __data_load_end = (__data_load_start + SIZEOF (.data))

.noinit         0x0000000000800251        0x4
                [!provide]                        PROVIDE (__noinit_start, .)
 *(.noinit*)
 .noinit        0x0000000000800251        0x4 .build/obj_doro67_multi_taylon/common/avr/bootloader.o
                0x0000000000800251                reset_key
                [!provide]                        PROVIDE (__noinit_end, .)
                0x0000000000800255                _end = .
                [!provide]                        PROVIDE (__heap_start, .)

.eeprom         0x0000000000810000        0x0
 *(.eeprom*)
                0x0000000000810000                __eeprom_end = .

.fuse
 *(.fuse)
 *(.lfuse)
 *(.hfuse)
 *(.efuse)

.lock
 *(.lock*)

.signature
 *(.signature*)

.user_signatures
 *(.user_signatures*)

.stab
 *(.stab)

.stabstr        0x0000000000000000       0x6d
 *(.stabstr)
 .stabstr       0x0000000000000000       0x6d .build/obj_doro67_multi_taylon/common/avr/xprintf.o

.stab.excl
 *(.stab.excl)

.stab.exclstr
 *(.stab.exclstr)

.stab.index
 *(.stab.index)

.stab.indexstr
 *(.stab.indexstr)

.comment        0x0000000000000000       0x11
 *(.comment)
 .comment       0x0000000000000000       0x11 .build/obj_doro67_multi_taylon/keyboards/doro67/multi/multi.o
                                         0x12 (size before relaxing)
 .comment       0x0000000000000011       0x12 .build/obj_doro67_multi_taylon/keyboards/doro67/multi/keymaps/taylon/keymap.o
 .comment       0x0000000000000011       0x12 .build/obj_doro67_multi_taylon/quantum/quantum.o
 .comment       0x0000000000000011       0x12 .build/obj_doro67_multi_taylon/quantum/keymap_common.o
 .comment       0x0000000000000011       0x12 .build/obj_doro67_multi_taylon/quantum/keycode_config.o
 .comment       0x0000000000000011       0x12 .build/obj_doro67_multi_taylon/quantum/matrix.o
 .comment       0x0000000000000011       0x12 .build/obj_doro67_multi_taylon/quantum/debounce/sym_g.o
 .comment       0x0000000000000011       0x12 .build/obj_doro67_multi_taylon/quantum/process_keycode/process_tap_dance.o
 .comment       0x0000000000000011       0x12 .build/obj_doro67_multi_taylon/quantum/backlight/backlight.o
 .comment       0x0000000000000011       0x12 .build/obj_doro67_multi_taylon/quantum/backlight/backlight_avr.o
 .comment       0x0000000000000011       0x12 .build/obj_doro67_multi_taylon/quantum/process_keycode/process_space_cadet.o
 .comment       0x0000000000000011       0x12 .build/obj_doro67_multi_taylon/common/host.o
 .comment       0x0000000000000011       0x12 .build/obj_doro67_multi_taylon/common/keyboard.o
 .comment       0x0000000000000011       0x12 .build/obj_doro67_multi_taylon/common/action.o
 .comment       0x0000000000000011       0x12 .build/obj_doro67_multi_taylon/common/action_tapping.o
 .comment       0x0000000000000011       0x12 .build/obj_doro67_multi_taylon/common/action_macro.o
 .comment       0x0000000000000011       0x12 .build/obj_doro67_multi_taylon/common/action_layer.o
 .comment       0x0000000000000011       0x12 .build/obj_doro67_multi_taylon/common/action_util.o
 .comment       0x0000000000000011       0x12 .build/obj_doro67_multi_taylon/common/debug.o
 .comment       0x0000000000000011       0x12 .build/obj_doro67_multi_taylon/common/eeconfig.o
 .comment       0x0000000000000011       0x12 .build/obj_doro67_multi_taylon/common/report.o
 .comment       0x0000000000000011       0x12 .build/obj_doro67_multi_taylon/common/avr/suspend.o
 .comment       0x0000000000000011       0x12 .build/obj_doro67_multi_taylon/common/avr/timer.o
 .comment       0x0000000000000011       0x12 .build/obj_doro67_multi_taylon/common/avr/bootloader.o
 .comment       0x0000000000000011       0x12 .build/obj_doro67_multi_taylon/common/magic.o
 .comment       0x0000000000000011       0x12 .build/obj_doro67_multi_taylon/common/mousekey.o
 .comment       0x0000000000000011       0x12 .build/obj_doro67_multi_taylon/lufa.o
 .comment       0x0000000000000011       0x12 .build/obj_doro67_multi_taylon/usb_descriptor.o
 .comment       0x0000000000000011       0x12 .build/obj_doro67_multi_taylon/outputselect.o
 .comment       0x0000000000000011       0x12 .build/obj_doro67_multi_taylon/lib/lufa/LUFA/Drivers/USB/Core/AVR8/Device_AVR8.o
 .comment       0x0000000000000011       0x12 .build/obj_doro67_multi_taylon/lib/lufa/LUFA/Drivers/USB/Core/AVR8/EndpointStream_AVR8.o
 .comment       0x0000000000000011       0x12 .build/obj_doro67_multi_taylon/lib/lufa/LUFA/Drivers/USB/Core/AVR8/Endpoint_AVR8.o
 .comment       0x0000000000000011       0x12 .build/obj_doro67_multi_taylon/lib/lufa/LUFA/Drivers/USB/Core/AVR8/USBController_AVR8.o
 .comment       0x0000000000000011       0x12 .build/obj_doro67_multi_taylon/lib/lufa/LUFA/Drivers/USB/Core/AVR8/USBInterrupt_AVR8.o
 .comment       0x0000000000000011       0x12 .build/obj_doro67_multi_taylon/lib/lufa/LUFA/Drivers/USB/Core/DeviceStandardReq.o
 .comment       0x0000000000000011       0x12 .build/obj_doro67_multi_taylon/lib/lufa/LUFA/Drivers/USB/Core/Events.o
 .comment       0x0000000000000011       0x12 .build/obj_doro67_multi_taylon/lib/lufa/LUFA/Drivers/USB/Core/USBTask.o

.note.gnu.avr.deviceinfo
                0x0000000000000000       0x40
 .note.gnu.avr.deviceinfo
                0x0000000000000000       0x40 /usr/lib/gcc/avr/4.9.2/../../../avr/lib/avr5/crtatmega32u4.o

.note.gnu.build-id
 *(.note.gnu.build-id)

.debug
 *(.debug)

.line
 *(.line)

.debug_srcinfo
 *(.debug_srcinfo)

.debug_sfnames
 *(.debug_sfnames)

.debug_aranges  0x0000000000000000      0xe08
 *(.debug_aranges)
 .debug_aranges
                0x0000000000000000       0x38 .build/obj_doro67_multi_taylon/keyboards/doro67/multi/multi.o
 .debug_aranges
                0x0000000000000038       0x18 .build/obj_doro67_multi_taylon/keyboards/doro67/multi/keymaps/taylon/keymap.o
 .debug_aranges
                0x0000000000000050      0x188 .build/obj_doro67_multi_taylon/quantum/quantum.o
 .debug_aranges
                0x00000000000001d8       0x40 .build/obj_doro67_multi_taylon/quantum/keymap_common.o
 .debug_aranges
                0x0000000000000218       0x28 .build/obj_doro67_multi_taylon/quantum/keycode_config.o
 .debug_aranges
                0x0000000000000240       0x90 .build/obj_doro67_multi_taylon/quantum/matrix.o
 .debug_aranges
                0x00000000000002d0       0x30 .build/obj_doro67_multi_taylon/quantum/debounce/sym_g.o
 .debug_aranges
                0x0000000000000300       0x70 .build/obj_doro67_multi_taylon/quantum/process_keycode/process_tap_dance.o
 .debug_aranges
                0x0000000000000370       0x68 .build/obj_doro67_multi_taylon/quantum/backlight/backlight.o
 .debug_aranges
                0x00000000000003d8       0x40 .build/obj_doro67_multi_taylon/quantum/backlight/backlight_avr.o
 .debug_aranges
                0x0000000000000418       0x28 .build/obj_doro67_multi_taylon/quantum/process_keycode/process_space_cadet.o
 .debug_aranges
                0x0000000000000440       0x60 .build/obj_doro67_multi_taylon/common/host.o
 .debug_aranges
                0x00000000000004a0       0x70 .build/obj_doro67_multi_taylon/common/keyboard.o
 .debug_aranges
                0x0000000000000510       0xc0 .build/obj_doro67_multi_taylon/common/action.o
 .debug_aranges
                0x00000000000005d0       0x48 .build/obj_doro67_multi_taylon/common/action_tapping.o
 .debug_aranges
                0x0000000000000618       0x20 .build/obj_doro67_multi_taylon/common/action_macro.o
 .debug_aranges
                0x0000000000000638       0xf0 .build/obj_doro67_multi_taylon/common/action_layer.o
 .debug_aranges
                0x0000000000000728      0x150 .build/obj_doro67_multi_taylon/common/action_util.o
 .debug_aranges
                0x0000000000000878       0x18 .build/obj_doro67_multi_taylon/common/debug.o
 .debug_aranges
                0x0000000000000890       0xe8 .build/obj_doro67_multi_taylon/common/eeconfig.o
 .debug_aranges
                0x0000000000000978       0x50 .build/obj_doro67_multi_taylon/common/report.o
 .debug_aranges
                0x00000000000009c8       0x70 .build/obj_doro67_multi_taylon/common/avr/suspend.o
 .debug_aranges
                0x0000000000000a38       0x50 .build/obj_doro67_multi_taylon/common/avr/timer.o
 .debug_aranges
                0x0000000000000a88       0x28 .build/obj_doro67_multi_taylon/common/avr/bootloader.o
 .debug_aranges
                0x0000000000000ab0       0x20 .build/obj_doro67_multi_taylon/common/magic.o
 .debug_aranges
                0x0000000000000ad0       0x50 .build/obj_doro67_multi_taylon/common/mousekey.o
 .debug_aranges
                0x0000000000000b20       0x90 .build/obj_doro67_multi_taylon/lufa.o
 .debug_aranges
                0x0000000000000bb0       0x20 .build/obj_doro67_multi_taylon/usb_descriptor.o
 .debug_aranges
                0x0000000000000bd0       0x38 .build/obj_doro67_multi_taylon/outputselect.o
 .debug_aranges
                0x0000000000000c08       0x20 .build/obj_doro67_multi_taylon/lib/lufa/LUFA/Drivers/USB/Core/AVR8/Device_AVR8.o
 .debug_aranges
                0x0000000000000c28       0xc8 .build/obj_doro67_multi_taylon/lib/lufa/LUFA/Drivers/USB/Core/AVR8/EndpointStream_AVR8.o
 .debug_aranges
                0x0000000000000cf0       0x40 .build/obj_doro67_multi_taylon/lib/lufa/LUFA/Drivers/USB/Core/AVR8/Endpoint_AVR8.o
 .debug_aranges
                0x0000000000000d30       0x30 .build/obj_doro67_multi_taylon/lib/lufa/LUFA/Drivers/USB/Core/AVR8/USBController_AVR8.o
 .debug_aranges
                0x0000000000000d60       0x38 .build/obj_doro67_multi_taylon/lib/lufa/LUFA/Drivers/USB/Core/AVR8/USBInterrupt_AVR8.o
 .debug_aranges
                0x0000000000000d98       0x20 .build/obj_doro67_multi_taylon/lib/lufa/LUFA/Drivers/USB/Core/DeviceStandardReq.o
 .debug_aranges
                0x0000000000000db8       0x30 .build/obj_doro67_multi_taylon/lib/lufa/LUFA/Drivers/USB/Core/Events.o
 .debug_aranges
                0x0000000000000de8       0x20 .build/obj_doro67_multi_taylon/lib/lufa/LUFA/Drivers/USB/Core/USBTask.o

.debug_pubnames
 *(.debug_pubnames)

.debug_info     0x0000000000000000    0x15a4d
 *(.debug_info .gnu.linkonce.wi.*)
 .debug_info    0x0000000000000000      0x33d .build/obj_doro67_multi_taylon/keyboards/doro67/multi/multi.o
 .debug_info    0x000000000000033d     0x125b .build/obj_doro67_multi_taylon/keyboards/doro67/multi/keymaps/taylon/keymap.o
 .debug_info    0x0000000000001598     0x2793 .build/obj_doro67_multi_taylon/quantum/quantum.o
 .debug_info    0x0000000000003d2b     0x1aae .build/obj_doro67_multi_taylon/quantum/keymap_common.o
 .debug_info    0x00000000000057d9      0x684 .build/obj_doro67_multi_taylon/quantum/keycode_config.o
 .debug_info    0x0000000000005e5d      0x6e3 .build/obj_doro67_multi_taylon/quantum/matrix.o
 .debug_info    0x0000000000006540      0x22b .build/obj_doro67_multi_taylon/quantum/debounce/sym_g.o
 .debug_info    0x000000000000676b     0x1503 .build/obj_doro67_multi_taylon/quantum/process_keycode/process_tap_dance.o
 .debug_info    0x0000000000007c6e      0x31c .build/obj_doro67_multi_taylon/quantum/backlight/backlight.o
 .debug_info    0x0000000000007f8a      0x29d .build/obj_doro67_multi_taylon/quantum/backlight/backlight_avr.o
 .debug_info    0x0000000000008227     0x12d1 .build/obj_doro67_multi_taylon/quantum/process_keycode/process_space_cadet.o
 .debug_info    0x00000000000094f8      0x45e .build/obj_doro67_multi_taylon/common/host.o
 .debug_info    0x0000000000009956      0x500 .build/obj_doro67_multi_taylon/common/keyboard.o
 .debug_info    0x0000000000009e56     0x1ddf .build/obj_doro67_multi_taylon/common/action.o
 .debug_info    0x000000000000bc35      0xf10 .build/obj_doro67_multi_taylon/common/action_tapping.o
 .debug_info    0x000000000000cb45      0x8af .build/obj_doro67_multi_taylon/common/action_macro.o
 .debug_info    0x000000000000d3f4      0xc27 .build/obj_doro67_multi_taylon/common/action_layer.o
 .debug_info    0x000000000000e01b      0x908 .build/obj_doro67_multi_taylon/common/action_util.o
 .debug_info    0x000000000000e923       0xfc .build/obj_doro67_multi_taylon/common/debug.o
 .debug_info    0x000000000000ea1f      0x952 .build/obj_doro67_multi_taylon/common/eeconfig.o
 .debug_info    0x000000000000f371      0x304 .build/obj_doro67_multi_taylon/common/report.o
 .debug_info    0x000000000000f675      0x3e9 .build/obj_doro67_multi_taylon/common/avr/suspend.o
 .debug_info    0x000000000000fa5e      0x39a .build/obj_doro67_multi_taylon/common/avr/timer.o
 .debug_info    0x000000000000fdf8      0x1ef .build/obj_doro67_multi_taylon/common/avr/bootloader.o
 .debug_info    0x000000000000ffe7      0x2c7 .build/obj_doro67_multi_taylon/common/magic.o
 .debug_info    0x00000000000102ae      0x504 .build/obj_doro67_multi_taylon/common/mousekey.o
 .debug_info    0x00000000000107b2     0x107d .build/obj_doro67_multi_taylon/lufa.o
 .debug_info    0x000000000001182f      0x784 .build/obj_doro67_multi_taylon/usb_descriptor.o
 .debug_info    0x0000000000011fb3      0x1a7 .build/obj_doro67_multi_taylon/outputselect.o
 .debug_info    0x000000000001215a       0xd2 .build/obj_doro67_multi_taylon/lib/lufa/LUFA/Drivers/USB/Core/AVR8/Device_AVR8.o
 .debug_info    0x000000000001222c     0x17c4 .build/obj_doro67_multi_taylon/lib/lufa/LUFA/Drivers/USB/Core/AVR8/EndpointStream_AVR8.o
 .debug_info    0x00000000000139f0      0x614 .build/obj_doro67_multi_taylon/lib/lufa/LUFA/Drivers/USB/Core/AVR8/Endpoint_AVR8.o
 .debug_info    0x0000000000014004      0x4cb .build/obj_doro67_multi_taylon/lib/lufa/LUFA/Drivers/USB/Core/AVR8/USBController_AVR8.o
 .debug_info    0x00000000000144cf      0x7c8 .build/obj_doro67_multi_taylon/lib/lufa/LUFA/Drivers/USB/Core/AVR8/USBInterrupt_AVR8.o
 .debug_info    0x0000000000014c97      0xa6d .build/obj_doro67_multi_taylon/lib/lufa/LUFA/Drivers/USB/Core/DeviceStandardReq.o
 .debug_info    0x0000000000015704       0xde .build/obj_doro67_multi_taylon/lib/lufa/LUFA/Drivers/USB/Core/Events.o
 .debug_info    0x00000000000157e2      0x26b .build/obj_doro67_multi_taylon/lib/lufa/LUFA/Drivers/USB/Core/USBTask.o

.debug_abbrev   0x0000000000000000     0x4779
 *(.debug_abbrev)
 .debug_abbrev  0x0000000000000000      0x171 .build/obj_doro67_multi_taylon/keyboards/doro67/multi/multi.o
 .debug_abbrev  0x0000000000000171       0xff .build/obj_doro67_multi_taylon/keyboards/doro67/multi/keymaps/taylon/keymap.o
 .debug_abbrev  0x0000000000000270      0x471 .build/obj_doro67_multi_taylon/quantum/quantum.o
 .debug_abbrev  0x00000000000006e1      0x259 .build/obj_doro67_multi_taylon/quantum/keymap_common.o
 .debug_abbrev  0x000000000000093a       0xdf .build/obj_doro67_multi_taylon/quantum/keycode_config.o
 .debug_abbrev  0x0000000000000a19      0x320 .build/obj_doro67_multi_taylon/quantum/matrix.o
 .debug_abbrev  0x0000000000000d39      0x17e .build/obj_doro67_multi_taylon/quantum/debounce/sym_g.o
 .debug_abbrev  0x0000000000000eb7      0x2e5 .build/obj_doro67_multi_taylon/quantum/process_keycode/process_tap_dance.o
 .debug_abbrev  0x000000000000119c      0x161 .build/obj_doro67_multi_taylon/quantum/backlight/backlight.o
 .debug_abbrev  0x00000000000012fd      0x1f9 .build/obj_doro67_multi_taylon/quantum/backlight/backlight_avr.o
 .debug_abbrev  0x00000000000014f6      0x1c7 .build/obj_doro67_multi_taylon/quantum/process_keycode/process_space_cadet.o
 .debug_abbrev  0x00000000000016bd      0x16f .build/obj_doro67_multi_taylon/common/host.o
 .debug_abbrev  0x000000000000182c      0x245 .build/obj_doro67_multi_taylon/common/keyboard.o
 .debug_abbrev  0x0000000000001a71      0x3bc .build/obj_doro67_multi_taylon/common/action.o
 .debug_abbrev  0x0000000000001e2d      0x2f3 .build/obj_doro67_multi_taylon/common/action_tapping.o
 .debug_abbrev  0x0000000000002120      0x1da .build/obj_doro67_multi_taylon/common/action_macro.o
 .debug_abbrev  0x00000000000022fa      0x294 .build/obj_doro67_multi_taylon/common/action_layer.o
 .debug_abbrev  0x000000000000258e      0x28d .build/obj_doro67_multi_taylon/common/action_util.o
 .debug_abbrev  0x000000000000281b       0x87 .build/obj_doro67_multi_taylon/common/debug.o
 .debug_abbrev  0x00000000000028a2      0x144 .build/obj_doro67_multi_taylon/common/eeconfig.o
 .debug_abbrev  0x00000000000029e6      0x14d .build/obj_doro67_multi_taylon/common/report.o
 .debug_abbrev  0x0000000000002b33      0x216 .build/obj_doro67_multi_taylon/common/avr/suspend.o
 .debug_abbrev  0x0000000000002d49      0x184 .build/obj_doro67_multi_taylon/common/avr/timer.o
 .debug_abbrev  0x0000000000002ecd      0x17a .build/obj_doro67_multi_taylon/common/avr/bootloader.o
 .debug_abbrev  0x0000000000003047      0x11c .build/obj_doro67_multi_taylon/common/magic.o
 .debug_abbrev  0x0000000000003163      0x238 .build/obj_doro67_multi_taylon/common/mousekey.o
 .debug_abbrev  0x000000000000339b      0x402 .build/obj_doro67_multi_taylon/lufa.o
 .debug_abbrev  0x000000000000379d      0x180 .build/obj_doro67_multi_taylon/usb_descriptor.o
 .debug_abbrev  0x000000000000391d      0x127 .build/obj_doro67_multi_taylon/outputselect.o
 .debug_abbrev  0x0000000000003a44       0x80 .build/obj_doro67_multi_taylon/lib/lufa/LUFA/Drivers/USB/Core/AVR8/Device_AVR8.o
 .debug_abbrev  0x0000000000003ac4      0x204 .build/obj_doro67_multi_taylon/lib/lufa/LUFA/Drivers/USB/Core/AVR8/EndpointStream_AVR8.o
 .debug_abbrev  0x0000000000003cc8      0x213 .build/obj_doro67_multi_taylon/lib/lufa/LUFA/Drivers/USB/Core/AVR8/Endpoint_AVR8.o
 .debug_abbrev  0x0000000000003edb      0x196 .build/obj_doro67_multi_taylon/lib/lufa/LUFA/Drivers/USB/Core/AVR8/USBController_AVR8.o
 .debug_abbrev  0x0000000000004071      0x23e .build/obj_doro67_multi_taylon/lib/lufa/LUFA/Drivers/USB/Core/AVR8/USBInterrupt_AVR8.o
 .debug_abbrev  0x00000000000042af      0x2c9 .build/obj_doro67_multi_taylon/lib/lufa/LUFA/Drivers/USB/Core/DeviceStandardReq.o
 .debug_abbrev  0x0000000000004578       0x99 .build/obj_doro67_multi_taylon/lib/lufa/LUFA/Drivers/USB/Core/Events.o
 .debug_abbrev  0x0000000000004611      0x168 .build/obj_doro67_multi_taylon/lib/lufa/LUFA/Drivers/USB/Core/USBTask.o

.debug_line     0x0000000000000000     0x83f9
 *(.debug_line .debug_line.* .debug_line_end)
 .debug_line    0x0000000000000000      0x129 .build/obj_doro67_multi_taylon/keyboards/doro67/multi/multi.o
 .debug_line    0x0000000000000129      0x105 .build/obj_doro67_multi_taylon/keyboards/doro67/multi/keymaps/taylon/keymap.o
 .debug_line    0x000000000000022e      0xbf3 .build/obj_doro67_multi_taylon/quantum/quantum.o
 .debug_line    0x0000000000000e21      0x3ef .build/obj_doro67_multi_taylon/quantum/keymap_common.o
 .debug_line    0x0000000000001210      0x235 .build/obj_doro67_multi_taylon/quantum/keycode_config.o
 .debug_line    0x0000000000001445      0x2fa .build/obj_doro67_multi_taylon/quantum/matrix.o
 .debug_line    0x000000000000173f      0x133 .build/obj_doro67_multi_taylon/quantum/debounce/sym_g.o
 .debug_line    0x0000000000001872      0x408 .build/obj_doro67_multi_taylon/quantum/process_keycode/process_tap_dance.o
 .debug_line    0x0000000000001c7a      0x24d .build/obj_doro67_multi_taylon/quantum/backlight/backlight.o
 .debug_line    0x0000000000001ec7      0x18a .build/obj_doro67_multi_taylon/quantum/backlight/backlight_avr.o
 .debug_line    0x0000000000002051      0x1e9 .build/obj_doro67_multi_taylon/quantum/process_keycode/process_space_cadet.o
 .debug_line    0x000000000000223a      0x18a .build/obj_doro67_multi_taylon/common/host.o
 .debug_line    0x00000000000023c4      0x29d .build/obj_doro67_multi_taylon/common/keyboard.o
 .debug_line    0x0000000000002661      0xa1a .build/obj_doro67_multi_taylon/common/action.o
 .debug_line    0x000000000000307b      0x4fe .build/obj_doro67_multi_taylon/common/action_tapping.o
 .debug_line    0x0000000000003579      0x180 .build/obj_doro67_multi_taylon/common/action_macro.o
 .debug_line    0x00000000000036f9      0x3c2 .build/obj_doro67_multi_taylon/common/action_layer.o
 .debug_line    0x0000000000003abb      0x4f2 .build/obj_doro67_multi_taylon/common/action_util.o
 .debug_line    0x0000000000003fad       0x61 .build/obj_doro67_multi_taylon/common/debug.o
 .debug_line    0x000000000000400e      0x343 .build/obj_doro67_multi_taylon/common/eeconfig.o
 .debug_line    0x0000000000004351      0x178 .build/obj_doro67_multi_taylon/common/report.o
 .debug_line    0x00000000000044c9      0x2e9 .build/obj_doro67_multi_taylon/common/avr/suspend.o
 .debug_line    0x00000000000047b2      0x220 .build/obj_doro67_multi_taylon/common/avr/timer.o
 .debug_line    0x00000000000049d2      0x165 .build/obj_doro67_multi_taylon/common/avr/bootloader.o
 .debug_line    0x0000000000004b37       0xd1 .build/obj_doro67_multi_taylon/common/magic.o
 .debug_line    0x0000000000004c08      0x521 .build/obj_doro67_multi_taylon/common/mousekey.o
 .debug_line    0x0000000000005129      0x7c4 .build/obj_doro67_multi_taylon/lufa.o
 .debug_line    0x00000000000058ed      0x225 .build/obj_doro67_multi_taylon/usb_descriptor.o
 .debug_line    0x0000000000005b12      0x157 .build/obj_doro67_multi_taylon/outputselect.o
 .debug_line    0x0000000000005c69      0x10a .build/obj_doro67_multi_taylon/lib/lufa/LUFA/Drivers/USB/Core/AVR8/Device_AVR8.o
 .debug_line    0x0000000000005d73     0x13bf .build/obj_doro67_multi_taylon/lib/lufa/LUFA/Drivers/USB/Core/AVR8/EndpointStream_AVR8.o
 .debug_line    0x0000000000007132      0x485 .build/obj_doro67_multi_taylon/lib/lufa/LUFA/Drivers/USB/Core/AVR8/Endpoint_AVR8.o
 .debug_line    0x00000000000075b7      0x2da .build/obj_doro67_multi_taylon/lib/lufa/LUFA/Drivers/USB/Core/AVR8/USBController_AVR8.o
 .debug_line    0x0000000000007891      0x510 .build/obj_doro67_multi_taylon/lib/lufa/LUFA/Drivers/USB/Core/AVR8/USBInterrupt_AVR8.o
 .debug_line    0x0000000000007da1      0x465 .build/obj_doro67_multi_taylon/lib/lufa/LUFA/Drivers/USB/Core/DeviceStandardReq.o
 .debug_line    0x0000000000008206       0x96 .build/obj_doro67_multi_taylon/lib/lufa/LUFA/Drivers/USB/Core/Events.o
 .debug_line    0x000000000000829c      0x15d .build/obj_doro67_multi_taylon/lib/lufa/LUFA/Drivers/USB/Core/USBTask.o

.debug_frame    0x0000000000000000     0x21c0
 *(.debug_frame)
 .debug_frame   0x0000000000000000       0x54 .build/obj_doro67_multi_taylon/keyboards/doro67/multi/multi.o
 .debug_frame   0x0000000000000054      0x420 .build/obj_doro67_multi_taylon/quantum/quantum.o
 .debug_frame   0x0000000000000474       0x70 .build/obj_doro67_multi_taylon/quantum/keymap_common.o
 .debug_frame   0x00000000000004e4       0x34 .build/obj_doro67_multi_taylon/quantum/keycode_config.o
 .debug_frame   0x0000000000000518      0x174 .build/obj_doro67_multi_taylon/quantum/matrix.o
 .debug_frame   0x000000000000068c       0x64 .build/obj_doro67_multi_taylon/quantum/debounce/sym_g.o
 .debug_frame   0x00000000000006f0      0x18c .build/obj_doro67_multi_taylon/quantum/process_keycode/process_tap_dance.o
 .debug_frame   0x000000000000087c       0xb4 .build/obj_doro67_multi_taylon/quantum/backlight/backlight.o
 .debug_frame   0x0000000000000930       0x7c .build/obj_doro67_multi_taylon/quantum/backlight/backlight_avr.o
 .debug_frame   0x00000000000009ac       0x4c .build/obj_doro67_multi_taylon/quantum/process_keycode/process_space_cadet.o
 .debug_frame   0x00000000000009f8       0xa4 .build/obj_doro67_multi_taylon/common/host.o
 .debug_frame   0x0000000000000a9c      0x124 .build/obj_doro67_multi_taylon/common/keyboard.o
 .debug_frame   0x0000000000000bc0      0x1f8 .build/obj_doro67_multi_taylon/common/action.o
 .debug_frame   0x0000000000000db8       0xd8 .build/obj_doro67_multi_taylon/common/action_tapping.o
 .debug_frame   0x0000000000000e90       0x48 .build/obj_doro67_multi_taylon/common/action_macro.o
 .debug_frame   0x0000000000000ed8      0x294 .build/obj_doro67_multi_taylon/common/action_layer.o
 .debug_frame   0x000000000000116c      0x284 .build/obj_doro67_multi_taylon/common/action_util.o
 .debug_frame   0x00000000000013f0      0x1c4 .build/obj_doro67_multi_taylon/common/eeconfig.o
 .debug_frame   0x00000000000015b4       0x84 .build/obj_doro67_multi_taylon/common/report.o
 .debug_frame   0x0000000000001638       0xf0 .build/obj_doro67_multi_taylon/common/avr/suspend.o
 .debug_frame   0x0000000000001728       0xf0 .build/obj_doro67_multi_taylon/common/avr/timer.o
 .debug_frame   0x0000000000001818       0x34 .build/obj_doro67_multi_taylon/common/avr/bootloader.o
 .debug_frame   0x000000000000184c       0x24 .build/obj_doro67_multi_taylon/common/magic.o
 .debug_frame   0x0000000000001870       0x98 .build/obj_doro67_multi_taylon/common/mousekey.o
 .debug_frame   0x0000000000001908      0x150 .build/obj_doro67_multi_taylon/lufa.o
 .debug_frame   0x0000000000001a58       0x24 .build/obj_doro67_multi_taylon/usb_descriptor.o
 .debug_frame   0x0000000000001a7c       0x5c .build/obj_doro67_multi_taylon/outputselect.o
 .debug_frame   0x0000000000001ad8       0x24 .build/obj_doro67_multi_taylon/lib/lufa/LUFA/Drivers/USB/Core/AVR8/Device_AVR8.o
 .debug_frame   0x0000000000001afc      0x42c .build/obj_doro67_multi_taylon/lib/lufa/LUFA/Drivers/USB/Core/AVR8/EndpointStream_AVR8.o
 .debug_frame   0x0000000000001f28       0x88 .build/obj_doro67_multi_taylon/lib/lufa/LUFA/Drivers/USB/Core/AVR8/Endpoint_AVR8.o
 .debug_frame   0x0000000000001fb0       0x5c .build/obj_doro67_multi_taylon/lib/lufa/LUFA/Drivers/USB/Core/AVR8/USBController_AVR8.o
 .debug_frame   0x000000000000200c      0x108 .build/obj_doro67_multi_taylon/lib/lufa/LUFA/Drivers/USB/Core/AVR8/USBInterrupt_AVR8.o
 .debug_frame   0x0000000000002114       0x3c .build/obj_doro67_multi_taylon/lib/lufa/LUFA/Drivers/USB/Core/DeviceStandardReq.o
 .debug_frame   0x0000000000002150       0x44 .build/obj_doro67_multi_taylon/lib/lufa/LUFA/Drivers/USB/Core/Events.o
 .debug_frame   0x0000000000002194       0x2c .build/obj_doro67_multi_taylon/lib/lufa/LUFA/Drivers/USB/Core/USBTask.o

.debug_str      0x0000000000000000     0x57e5
 *(.debug_str)
 .debug_str     0x0000000000000000      0x247 .build/obj_doro67_multi_taylon/keyboards/doro67/multi/multi.o
                                        0x2be (size before relaxing)
 .debug_str     0x0000000000000247     0x150b .build/obj_doro67_multi_taylon/keyboards/doro67/multi/keymaps/taylon/keymap.o
                                       0x1731 (size before relaxing)
 .debug_str     0x0000000000001752      0x754 .build/obj_doro67_multi_taylon/quantum/quantum.o
                                       0x1e53 (size before relaxing)
 .debug_str     0x0000000000001ea6      0x741 .build/obj_doro67_multi_taylon/quantum/keymap_common.o
                                       0x1db7 (size before relaxing)
 .debug_str     0x00000000000025e7       0x19 .build/obj_doro67_multi_taylon/quantum/keycode_config.o
                                        0x863 (size before relaxing)
 .debug_str     0x0000000000002600      0x151 .build/obj_doro67_multi_taylon/quantum/matrix.o
                                        0x3d6 (size before relaxing)
 .debug_str     0x0000000000002751       0x5d .build/obj_doro67_multi_taylon/quantum/debounce/sym_g.o
                                        0x23a (size before relaxing)
 .debug_str     0x00000000000027ae      0x225 .build/obj_doro67_multi_taylon/quantum/process_keycode/process_tap_dance.o
                                       0x13e6 (size before relaxing)
 .debug_str     0x00000000000029d3      0x12d .build/obj_doro67_multi_taylon/quantum/backlight/backlight.o
                                        0x2d7 (size before relaxing)
 .debug_str     0x0000000000002b00       0x61 .build/obj_doro67_multi_taylon/quantum/backlight/backlight_avr.o
                                        0x258 (size before relaxing)
 .debug_str     0x0000000000002b61       0x72 .build/obj_doro67_multi_taylon/quantum/process_keycode/process_space_cadet.o
                                       0x1693 (size before relaxing)
 .debug_str     0x0000000000002bd3      0x11d .build/obj_doro67_multi_taylon/common/host.o
                                        0x33a (size before relaxing)
 .debug_str     0x0000000000002cf0      0x14a .build/obj_doro67_multi_taylon/common/keyboard.o
                                        0x394 (size before relaxing)
 .debug_str     0x0000000000002e3a      0x3c1 .build/obj_doro67_multi_taylon/common/action.o
                                       0x1521 (size before relaxing)
 .debug_str     0x00000000000031fb       0xf7 .build/obj_doro67_multi_taylon/common/action_tapping.o
                                        0xb49 (size before relaxing)
 .debug_str     0x00000000000032f2       0x74 .build/obj_doro67_multi_taylon/common/action_macro.o
                                        0x88a (size before relaxing)
 .debug_str     0x0000000000003366       0xe7 .build/obj_doro67_multi_taylon/common/action_layer.o
                                        0x575 (size before relaxing)
 .debug_str     0x000000000000344d      0x1b8 .build/obj_doro67_multi_taylon/common/action_util.o
                                        0x5bd (size before relaxing)
 .debug_str     0x0000000000003605       0x18 .build/obj_doro67_multi_taylon/common/debug.o
                                        0x1b4 (size before relaxing)
 .debug_str     0x000000000000361d      0x1e9 .build/obj_doro67_multi_taylon/common/eeconfig.o
                                        0x433 (size before relaxing)
 .debug_str     0x0000000000003806       0x47 .build/obj_doro67_multi_taylon/common/report.o
                                        0x233 (size before relaxing)
 .debug_str     0x000000000000384d      0x1de .build/obj_doro67_multi_taylon/common/avr/suspend.o
                                        0x3d7 (size before relaxing)
 .debug_str     0x0000000000003a2b       0x84 .build/obj_doro67_multi_taylon/common/avr/timer.o
                                        0x21f (size before relaxing)
 .debug_str     0x0000000000003aaf       0x5b .build/obj_doro67_multi_taylon/common/avr/bootloader.o
                                        0x252 (size before relaxing)
 .debug_str     0x0000000000003b0a       0x18 .build/obj_doro67_multi_taylon/common/magic.o
                                        0x322 (size before relaxing)
 .debug_str     0x0000000000003b22       0xd0 .build/obj_doro67_multi_taylon/common/mousekey.o
                                        0x3e8 (size before relaxing)
 .debug_str     0x0000000000003bf2      0x5d9 .build/obj_doro67_multi_taylon/lufa.o
                                        0xa18 (size before relaxing)
 .debug_str     0x00000000000041cb      0x6bc .build/obj_doro67_multi_taylon/usb_descriptor.o
                                        0x94e (size before relaxing)
 .debug_str     0x0000000000004887       0x58 .build/obj_doro67_multi_taylon/outputselect.o
                                        0x2da (size before relaxing)
 .debug_str     0x00000000000048df       0x5e .build/obj_doro67_multi_taylon/lib/lufa/LUFA/Drivers/USB/Core/AVR8/Device_AVR8.o
                                        0x1dd (size before relaxing)
 .debug_str     0x000000000000493d      0x4a3 .build/obj_doro67_multi_taylon/lib/lufa/LUFA/Drivers/USB/Core/AVR8/EndpointStream_AVR8.o
                                        0x83f (size before relaxing)
 .debug_str     0x0000000000004de0      0x254 .build/obj_doro67_multi_taylon/lib/lufa/LUFA/Drivers/USB/Core/AVR8/Endpoint_AVR8.o
                                        0x5ff (size before relaxing)
 .debug_str     0x0000000000005034      0x1c0 .build/obj_doro67_multi_taylon/lib/lufa/LUFA/Drivers/USB/Core/AVR8/USBController_AVR8.o
                                        0x53e (size before relaxing)
 .debug_str     0x00000000000051f4      0x146 .build/obj_doro67_multi_taylon/lib/lufa/LUFA/Drivers/USB/Core/AVR8/USBInterrupt_AVR8.o
                                        0x5bd (size before relaxing)
 .debug_str     0x000000000000533a      0x40d .build/obj_doro67_multi_taylon/lib/lufa/LUFA/Drivers/USB/Core/DeviceStandardReq.o
                                        0x98e (size before relaxing)
 .debug_str     0x0000000000005747       0x59 .build/obj_doro67_multi_taylon/lib/lufa/LUFA/Drivers/USB/Core/Events.o
                                        0x1ad (size before relaxing)
 .debug_str     0x00000000000057a0       0x45 .build/obj_doro67_multi_taylon/lib/lufa/LUFA/Drivers/USB/Core/USBTask.o
                                        0x364 (size before relaxing)

.debug_loc      0x0000000000000000     0x8e24
 *(.debug_loc)
 .debug_loc     0x0000000000000000       0x6d .build/obj_doro67_multi_taylon/keyboards/doro67/multi/multi.o
 .debug_loc     0x000000000000006d     0x10e4 .build/obj_doro67_multi_taylon/quantum/quantum.o
 .debug_loc     0x0000000000001151      0x4cf .build/obj_doro67_multi_taylon/quantum/keymap_common.o
 .debug_loc     0x0000000000001620      0x16d .build/obj_doro67_multi_taylon/quantum/keycode_config.o
 .debug_loc     0x000000000000178d      0x39f .build/obj_doro67_multi_taylon/quantum/matrix.o
 .debug_loc     0x0000000000001b2c      0x11d .build/obj_doro67_multi_taylon/quantum/debounce/sym_g.o
 .debug_loc     0x0000000000001c49      0x924 .build/obj_doro67_multi_taylon/quantum/process_keycode/process_tap_dance.o
 .debug_loc     0x000000000000256d       0x35 .build/obj_doro67_multi_taylon/quantum/backlight/backlight.o
 .debug_loc     0x00000000000025a2      0x104 .build/obj_doro67_multi_taylon/quantum/backlight/backlight_avr.o
 .debug_loc     0x00000000000026a6      0x3c6 .build/obj_doro67_multi_taylon/quantum/process_keycode/process_space_cadet.o
 .debug_loc     0x0000000000002a6c       0xd8 .build/obj_doro67_multi_taylon/common/host.o
 .debug_loc     0x0000000000002b44      0x201 .build/obj_doro67_multi_taylon/common/keyboard.o
 .debug_loc     0x0000000000002d45      0xc12 .build/obj_doro67_multi_taylon/common/action.o
 .debug_loc     0x0000000000003957      0x663 .build/obj_doro67_multi_taylon/common/action_tapping.o
 .debug_loc     0x0000000000003fba      0x4f9 .build/obj_doro67_multi_taylon/common/action_macro.o
 .debug_loc     0x00000000000044b3      0x83f .build/obj_doro67_multi_taylon/common/action_layer.o
 .debug_loc     0x0000000000004cf2      0x292 .build/obj_doro67_multi_taylon/common/action_util.o
 .debug_loc     0x0000000000004f84      0x1ca .build/obj_doro67_multi_taylon/common/eeconfig.o
 .debug_loc     0x000000000000514e      0x27f .build/obj_doro67_multi_taylon/common/report.o
 .debug_loc     0x00000000000053cd       0xd9 .build/obj_doro67_multi_taylon/common/avr/suspend.o
 .debug_loc     0x00000000000054a6      0x2aa .build/obj_doro67_multi_taylon/common/avr/timer.o
 .debug_loc     0x0000000000005750       0x2a .build/obj_doro67_multi_taylon/common/magic.o
 .debug_loc     0x000000000000577a      0x42a .build/obj_doro67_multi_taylon/common/mousekey.o
 .debug_loc     0x0000000000005ba4      0x5f6 .build/obj_doro67_multi_taylon/lufa.o
 .debug_loc     0x000000000000619a      0x2f3 .build/obj_doro67_multi_taylon/usb_descriptor.o
 .debug_loc     0x000000000000648d       0x4f .build/obj_doro67_multi_taylon/outputselect.o
 .debug_loc     0x00000000000064dc     0x1e6e .build/obj_doro67_multi_taylon/lib/lufa/LUFA/Drivers/USB/Core/AVR8/EndpointStream_AVR8.o
 .debug_loc     0x000000000000834a      0x3df .build/obj_doro67_multi_taylon/lib/lufa/LUFA/Drivers/USB/Core/AVR8/Endpoint_AVR8.o
 .debug_loc     0x0000000000008729       0x49 .build/obj_doro67_multi_taylon/lib/lufa/LUFA/Drivers/USB/Core/AVR8/USBController_AVR8.o
 .debug_loc     0x0000000000008772      0x363 .build/obj_doro67_multi_taylon/lib/lufa/LUFA/Drivers/USB/Core/AVR8/USBInterrupt_AVR8.o
 .debug_loc     0x0000000000008ad5      0x306 .build/obj_doro67_multi_taylon/lib/lufa/LUFA/Drivers/USB/Core/DeviceStandardReq.o
 .debug_loc     0x0000000000008ddb       0x49 .build/obj_doro67_multi_taylon/lib/lufa/LUFA/Drivers/USB/Core/USBTask.o

.debug_macinfo
 *(.debug_macinfo)

.debug_weaknames
 *(.debug_weaknames)

.debug_funcnames
 *(.debug_funcnames)

.debug_typenames
 *(.debug_typenames)

.debug_varnames
 *(.debug_varnames)

.debug_pubtypes
 *(.debug_pubtypes)

.debug_ranges   0x0000000000000000      0xe50
 *(.debug_ranges)
 .debug_ranges  0x0000000000000000       0x28 .build/obj_doro67_multi_taylon/keyboards/doro67/multi/multi.o
 .debug_ranges  0x0000000000000028      0x178 .build/obj_doro67_multi_taylon/quantum/quantum.o
 .debug_ranges  0x00000000000001a0       0x30 .build/obj_doro67_multi_taylon/quantum/keymap_common.o
 .debug_ranges  0x00000000000001d0       0x18 .build/obj_doro67_multi_taylon/quantum/keycode_config.o
 .debug_ranges  0x00000000000001e8       0x98 .build/obj_doro67_multi_taylon/quantum/matrix.o
 .debug_ranges  0x0000000000000280       0x20 .build/obj_doro67_multi_taylon/quantum/debounce/sym_g.o
 .debug_ranges  0x00000000000002a0       0xa8 .build/obj_doro67_multi_taylon/quantum/process_keycode/process_tap_dance.o
 .debug_ranges  0x0000000000000348       0x58 .build/obj_doro67_multi_taylon/quantum/backlight/backlight.o
 .debug_ranges  0x00000000000003a0       0x30 .build/obj_doro67_multi_taylon/quantum/backlight/backlight_avr.o
 .debug_ranges  0x00000000000003d0       0x18 .build/obj_doro67_multi_taylon/quantum/process_keycode/process_space_cadet.o
 .debug_ranges  0x00000000000003e8       0x50 .build/obj_doro67_multi_taylon/common/host.o
 .debug_ranges  0x0000000000000438       0x90 .build/obj_doro67_multi_taylon/common/keyboard.o
 .debug_ranges  0x00000000000004c8       0xb0 .build/obj_doro67_multi_taylon/common/action.o
 .debug_ranges  0x0000000000000578       0x50 .build/obj_doro67_multi_taylon/common/action_tapping.o
 .debug_ranges  0x00000000000005c8       0x28 .build/obj_doro67_multi_taylon/common/action_macro.o
 .debug_ranges  0x00000000000005f0       0xe0 .build/obj_doro67_multi_taylon/common/action_layer.o
 .debug_ranges  0x00000000000006d0      0x140 .build/obj_doro67_multi_taylon/common/action_util.o
 .debug_ranges  0x0000000000000810       0xd8 .build/obj_doro67_multi_taylon/common/eeconfig.o
 .debug_ranges  0x00000000000008e8       0x40 .build/obj_doro67_multi_taylon/common/report.o
 .debug_ranges  0x0000000000000928       0x78 .build/obj_doro67_multi_taylon/common/avr/suspend.o
 .debug_ranges  0x00000000000009a0       0x40 .build/obj_doro67_multi_taylon/common/avr/timer.o
 .debug_ranges  0x00000000000009e0       0x18 .build/obj_doro67_multi_taylon/common/avr/bootloader.o
 .debug_ranges  0x00000000000009f8       0x10 .build/obj_doro67_multi_taylon/common/magic.o
 .debug_ranges  0x0000000000000a08       0x40 .build/obj_doro67_multi_taylon/common/mousekey.o
 .debug_ranges  0x0000000000000a48       0x80 .build/obj_doro67_multi_taylon/lufa.o
 .debug_ranges  0x0000000000000ac8       0x28 .build/obj_doro67_multi_taylon/usb_descriptor.o
 .debug_ranges  0x0000000000000af0       0x28 .build/obj_doro67_multi_taylon/outputselect.o
 .debug_ranges  0x0000000000000b18       0x10 .build/obj_doro67_multi_taylon/lib/lufa/LUFA/Drivers/USB/Core/AVR8/Device_AVR8.o
 .debug_ranges  0x0000000000000b28      0x1f8 .build/obj_doro67_multi_taylon/lib/lufa/LUFA/Drivers/USB/Core/AVR8/EndpointStream_AVR8.o
 .debug_ranges  0x0000000000000d20       0x78 .build/obj_doro67_multi_taylon/lib/lufa/LUFA/Drivers/USB/Core/AVR8/Endpoint_AVR8.o
 .debug_ranges  0x0000000000000d98       0x20 .build/obj_doro67_multi_taylon/lib/lufa/LUFA/Drivers/USB/Core/AVR8/USBController_AVR8.o
 .debug_ranges  0x0000000000000db8       0x40 .build/obj_doro67_multi_taylon/lib/lufa/LUFA/Drivers/USB/Core/AVR8/USBInterrupt_AVR8.o
 .debug_ranges  0x0000000000000df8       0x28 .build/obj_doro67_multi_taylon/lib/lufa/LUFA/Drivers/USB/Core/DeviceStandardReq.o
 .debug_ranges  0x0000000000000e20       0x20 .build/obj_doro67_multi_taylon/lib/lufa/LUFA/Drivers/USB/Core/Events.o
 .debug_ranges  0x0000000000000e40       0x10 .build/obj_doro67_multi_taylon/lib/lufa/LUFA/Drivers/USB/Core/USBTask.o

.debug_macro
 *(.debug_macro)
OUTPUT(.build/doro67_multi_taylon.elf elf32-avr)
LOAD linker stubs

Cross Reference Table

Symbol                                            File
CALLBACK_HIDParser_FilterHIDReportItem            .build/obj_doro67_multi_taylon/lib/lufa/LUFA/Drivers/USB/Class/Common/HIDParser.o
CALLBACK_USB_GetDescriptor                        .build/obj_doro67_multi_taylon/lufa.o
                                                  .build/obj_doro67_multi_taylon/lib/lufa/LUFA/Drivers/USB/Core/DeviceStandardReq.o
ConfigurationDescriptor                           .build/obj_doro67_multi_taylon/usb_descriptor.o
DeviceDescriptor                                  .build/obj_doro67_multi_taylon/usb_descriptor.o
EVENT_USB_Device_ConfigurationChanged             .build/obj_doro67_multi_taylon/lufa.o
                                                  .build/obj_doro67_multi_taylon/lib/lufa/LUFA/Drivers/USB/Core/DeviceStandardReq.o
EVENT_USB_Device_Connect                          .build/obj_doro67_multi_taylon/lufa.o
                                                  .build/obj_doro67_multi_taylon/lib/lufa/LUFA/Drivers/USB/Core/AVR8/USBInterrupt_AVR8.o
EVENT_USB_Device_ControlRequest                   .build/obj_doro67_multi_taylon/lufa.o
                                                  .build/obj_doro67_multi_taylon/lib/lufa/LUFA/Drivers/USB/Core/DeviceStandardReq.o
EVENT_USB_Device_Disconnect                       .build/obj_doro67_multi_taylon/lufa.o
                                                  .build/obj_doro67_multi_taylon/lib/lufa/LUFA/Drivers/USB/Core/AVR8/USBInterrupt_AVR8.o
EVENT_USB_Device_Reset                            .build/obj_doro67_multi_taylon/lufa.o
                                                  .build/obj_doro67_multi_taylon/lib/lufa/LUFA/Drivers/USB/Core/AVR8/USBInterrupt_AVR8.o
EVENT_USB_Device_StartOfFrame                     .build/obj_doro67_multi_taylon/lib/lufa/LUFA/Drivers/USB/Core/Events.o
                                                  .build/obj_doro67_multi_taylon/lib/lufa/LUFA/Drivers/USB/Core/AVR8/USBInterrupt_AVR8.o
EVENT_USB_Device_Suspend                          .build/obj_doro67_multi_taylon/lufa.o
                                                  .build/obj_doro67_multi_taylon/lib/lufa/LUFA/Drivers/USB/Core/AVR8/USBInterrupt_AVR8.o
EVENT_USB_Device_WakeUp                           .build/obj_doro67_multi_taylon/lufa.o
                                                  .build/obj_doro67_multi_taylon/lib/lufa/LUFA/Drivers/USB/Core/AVR8/USBInterrupt_AVR8.o
Endpoint_ClearEndpoints                           .build/obj_doro67_multi_taylon/lib/lufa/LUFA/Drivers/USB/Core/AVR8/Endpoint_AVR8.o
Endpoint_ClearStatusStage                         .build/obj_doro67_multi_taylon/lib/lufa/LUFA/Drivers/USB/Core/AVR8/Endpoint_AVR8.o
                                                  .build/obj_doro67_multi_taylon/lib/lufa/LUFA/Drivers/USB/Core/DeviceStandardReq.o
                                                  .build/obj_doro67_multi_taylon/lufa.o
Endpoint_ConfigureEndpointTable                   .build/obj_doro67_multi_taylon/lib/lufa/LUFA/Drivers/USB/Core/AVR8/Endpoint_AVR8.o
Endpoint_ConfigureEndpoint_Prv                    .build/obj_doro67_multi_taylon/lib/lufa/LUFA/Drivers/USB/Core/AVR8/Endpoint_AVR8.o
                                                  .build/obj_doro67_multi_taylon/lib/lufa/LUFA/Drivers/USB/Core/AVR8/USBInterrupt_AVR8.o
                                                  .build/obj_doro67_multi_taylon/lib/lufa/LUFA/Drivers/USB/Core/AVR8/USBController_AVR8.o
                                                  .build/obj_doro67_multi_taylon/lufa.o
Endpoint_Discard_Stream                           .build/obj_doro67_multi_taylon/lib/lufa/LUFA/Drivers/USB/Core/AVR8/EndpointStream_AVR8.o
Endpoint_Null_Stream                              .build/obj_doro67_multi_taylon/lib/lufa/LUFA/Drivers/USB/Core/AVR8/EndpointStream_AVR8.o
Endpoint_Read_Control_EStream_BE                  .build/obj_doro67_multi_taylon/lib/lufa/LUFA/Drivers/USB/Core/AVR8/EndpointStream_AVR8.o
Endpoint_Read_Control_EStream_LE                  .build/obj_doro67_multi_taylon/lib/lufa/LUFA/Drivers/USB/Core/AVR8/EndpointStream_AVR8.o
Endpoint_Read_Control_Stream_BE                   .build/obj_doro67_multi_taylon/lib/lufa/LUFA/Drivers/USB/Core/AVR8/EndpointStream_AVR8.o
Endpoint_Read_Control_Stream_LE                   .build/obj_doro67_multi_taylon/lib/lufa/LUFA/Drivers/USB/Core/AVR8/EndpointStream_AVR8.o
Endpoint_Read_EStream_BE                          .build/obj_doro67_multi_taylon/lib/lufa/LUFA/Drivers/USB/Core/AVR8/EndpointStream_AVR8.o
Endpoint_Read_EStream_LE                          .build/obj_doro67_multi_taylon/lib/lufa/LUFA/Drivers/USB/Core/AVR8/EndpointStream_AVR8.o
Endpoint_Read_Stream_BE                           .build/obj_doro67_multi_taylon/lib/lufa/LUFA/Drivers/USB/Core/AVR8/EndpointStream_AVR8.o
Endpoint_Read_Stream_LE                           .build/obj_doro67_multi_taylon/lib/lufa/LUFA/Drivers/USB/Core/AVR8/EndpointStream_AVR8.o
Endpoint_WaitUntilReady                           .build/obj_doro67_multi_taylon/lib/lufa/LUFA/Drivers/USB/Core/AVR8/Endpoint_AVR8.o
                                                  .build/obj_doro67_multi_taylon/lib/lufa/LUFA/Drivers/USB/Core/AVR8/EndpointStream_AVR8.o
Endpoint_Write_Control_EStream_BE                 .build/obj_doro67_multi_taylon/lib/lufa/LUFA/Drivers/USB/Core/AVR8/EndpointStream_AVR8.o
Endpoint_Write_Control_EStream_LE                 .build/obj_doro67_multi_taylon/lib/lufa/LUFA/Drivers/USB/Core/AVR8/EndpointStream_AVR8.o
Endpoint_Write_Control_PStream_BE                 .build/obj_doro67_multi_taylon/lib/lufa/LUFA/Drivers/USB/Core/AVR8/EndpointStream_AVR8.o
Endpoint_Write_Control_PStream_LE                 .build/obj_doro67_multi_taylon/lib/lufa/LUFA/Drivers/USB/Core/AVR8/EndpointStream_AVR8.o
                                                  .build/obj_doro67_multi_taylon/lib/lufa/LUFA/Drivers/USB/Core/DeviceStandardReq.o
Endpoint_Write_Control_Stream_BE                  .build/obj_doro67_multi_taylon/lib/lufa/LUFA/Drivers/USB/Core/AVR8/EndpointStream_AVR8.o
Endpoint_Write_Control_Stream_LE                  .build/obj_doro67_multi_taylon/lib/lufa/LUFA/Drivers/USB/Core/AVR8/EndpointStream_AVR8.o
                                                  .build/obj_doro67_multi_taylon/lib/lufa/LUFA/Drivers/USB/Core/DeviceStandardReq.o
                                                  .build/obj_doro67_multi_taylon/lufa.o
Endpoint_Write_EStream_BE                         .build/obj_doro67_multi_taylon/lib/lufa/LUFA/Drivers/USB/Core/AVR8/EndpointStream_AVR8.o
Endpoint_Write_EStream_LE                         .build/obj_doro67_multi_taylon/lib/lufa/LUFA/Drivers/USB/Core/AVR8/EndpointStream_AVR8.o
Endpoint_Write_PStream_BE                         .build/obj_doro67_multi_taylon/lib/lufa/LUFA/Drivers/USB/Core/AVR8/EndpointStream_AVR8.o
Endpoint_Write_PStream_LE                         .build/obj_doro67_multi_taylon/lib/lufa/LUFA/Drivers/USB/Core/AVR8/EndpointStream_AVR8.o
Endpoint_Write_Stream_BE                          .build/obj_doro67_multi_taylon/lib/lufa/LUFA/Drivers/USB/Core/AVR8/EndpointStream_AVR8.o
Endpoint_Write_Stream_LE                          .build/obj_doro67_multi_taylon/lib/lufa/LUFA/Drivers/USB/Core/AVR8/EndpointStream_AVR8.o
                                                  .build/obj_doro67_multi_taylon/lufa.o
KeyboardReport                                    .build/obj_doro67_multi_taylon/usb_descriptor.o
LanguageString                                    .build/obj_doro67_multi_taylon/usb_descriptor.o
ManufacturerString                                .build/obj_doro67_multi_taylon/usb_descriptor.o
ProductString                                     .build/obj_doro67_multi_taylon/usb_descriptor.o
SerialNumberString                                .build/obj_doro67_multi_taylon/usb_descriptor.o
SharedReport                                      .build/obj_doro67_multi_taylon/usb_descriptor.o
USB_ControlRequest                                .build/obj_doro67_multi_taylon/lib/lufa/LUFA/Drivers/USB/Core/USBTask.o
                                                  .build/obj_doro67_multi_taylon/lib/lufa/LUFA/Drivers/USB/Core/DeviceStandardReq.o
                                                  .build/obj_doro67_multi_taylon/lib/lufa/LUFA/Drivers/USB/Core/AVR8/Endpoint_AVR8.o
                                                  .build/obj_doro67_multi_taylon/lib/lufa/LUFA/Drivers/USB/Core/AVR8/EndpointStream_AVR8.o
                                                  .build/obj_doro67_multi_taylon/lufa.o
USB_DeviceState                                   .build/obj_doro67_multi_taylon/lib/lufa/LUFA/Drivers/USB/Core/USBTask.o
                                                  .build/obj_doro67_multi_taylon/lib/lufa/LUFA/Drivers/USB/Core/DeviceStandardReq.o
                                                  .build/obj_doro67_multi_taylon/lib/lufa/LUFA/Drivers/USB/Core/AVR8/USBInterrupt_AVR8.o
                                                  .build/obj_doro67_multi_taylon/lib/lufa/LUFA/Drivers/USB/Core/AVR8/USBController_AVR8.o
                                                  .build/obj_doro67_multi_taylon/lib/lufa/LUFA/Drivers/USB/Core/AVR8/Endpoint_AVR8.o
                                                  .build/obj_doro67_multi_taylon/lib/lufa/LUFA/Drivers/USB/Core/AVR8/EndpointStream_AVR8.o
                                                  .build/obj_doro67_multi_taylon/outputselect.o
                                                  .build/obj_doro67_multi_taylon/lufa.o
                                                  .build/obj_doro67_multi_taylon/common/avr/suspend.o
USB_Device_ConfigurationNumber                    .build/obj_doro67_multi_taylon/lib/lufa/LUFA/Drivers/USB/Core/DeviceStandardReq.o
                                                  .build/obj_doro67_multi_taylon/lib/lufa/LUFA/Drivers/USB/Core/AVR8/USBInterrupt_AVR8.o
                                                  .build/obj_doro67_multi_taylon/lib/lufa/LUFA/Drivers/USB/Core/AVR8/USBController_AVR8.o
USB_Device_CurrentlySelfPowered                   .build/obj_doro67_multi_taylon/lib/lufa/LUFA/Drivers/USB/Core/DeviceStandardReq.o
                                                  .build/obj_doro67_multi_taylon/lib/lufa/LUFA/Drivers/USB/Core/AVR8/USBController_AVR8.o
USB_Device_ProcessControlRequest                  .build/obj_doro67_multi_taylon/lib/lufa/LUFA/Drivers/USB/Core/DeviceStandardReq.o
                                                  .build/obj_doro67_multi_taylon/lib/lufa/LUFA/Drivers/USB/Core/USBTask.o
                                                  .build/obj_doro67_multi_taylon/lib/lufa/LUFA/Drivers/USB/Core/AVR8/USBInterrupt_AVR8.o
USB_Device_RemoteWakeupEnabled                    .build/obj_doro67_multi_taylon/lib/lufa/LUFA/Drivers/USB/Core/DeviceStandardReq.o
                                                  .build/obj_doro67_multi_taylon/lib/lufa/LUFA/Drivers/USB/Core/AVR8/USBController_AVR8.o
                                                  .build/obj_doro67_multi_taylon/lufa.o
USB_Device_SendRemoteWakeup                       .build/obj_doro67_multi_taylon/lib/lufa/LUFA/Drivers/USB/Core/AVR8/Device_AVR8.o
                                                  .build/obj_doro67_multi_taylon/lufa.o
USB_Disable                                       .build/obj_doro67_multi_taylon/lib/lufa/LUFA/Drivers/USB/Core/AVR8/USBController_AVR8.o
                                                  .build/obj_doro67_multi_taylon/lufa.o
USB_Event_Stub                                    .build/obj_doro67_multi_taylon/lib/lufa/LUFA/Drivers/USB/Core/Events.o
USB_Event_Stub_2                                  .build/obj_doro67_multi_taylon/lib/lufa/LUFA/Drivers/USB/Core/Events.o
USB_Event_Stub_3                                  .build/obj_doro67_multi_taylon/lib/lufa/LUFA/Drivers/USB/Core/Events.o
USB_GetHIDReportItemInfo                          .build/obj_doro67_multi_taylon/lib/lufa/LUFA/Drivers/USB/Class/Common/HIDParser.o
USB_GetHIDReportSize                              .build/obj_doro67_multi_taylon/lib/lufa/LUFA/Drivers/USB/Class/Common/HIDParser.o
USB_GetNextDescriptorComp                         .build/obj_doro67_multi_taylon/lib/lufa/LUFA/Drivers/USB/Core/ConfigDescriptors.o
USB_GetNextDescriptorOfType                       .build/obj_doro67_multi_taylon/lib/lufa/LUFA/Drivers/USB/Core/ConfigDescriptors.o
USB_GetNextDescriptorOfTypeAfter                  .build/obj_doro67_multi_taylon/lib/lufa/LUFA/Drivers/USB/Core/ConfigDescriptors.o
USB_GetNextDescriptorOfTypeBefore                 .build/obj_doro67_multi_taylon/lib/lufa/LUFA/Drivers/USB/Core/ConfigDescriptors.o
USB_INT_ClearAllInterrupts                        .build/obj_doro67_multi_taylon/lib/lufa/LUFA/Drivers/USB/Core/AVR8/USBInterrupt_AVR8.o
                                                  .build/obj_doro67_multi_taylon/lib/lufa/LUFA/Drivers/USB/Core/AVR8/USBController_AVR8.o
USB_INT_DisableAllInterrupts                      .build/obj_doro67_multi_taylon/lib/lufa/LUFA/Drivers/USB/Core/AVR8/USBInterrupt_AVR8.o
                                                  .build/obj_doro67_multi_taylon/lib/lufa/LUFA/Drivers/USB/Core/AVR8/USBController_AVR8.o
USB_Init                                          .build/obj_doro67_multi_taylon/lib/lufa/LUFA/Drivers/USB/Core/AVR8/USBController_AVR8.o
                                                  .build/obj_doro67_multi_taylon/lufa.o
USB_IsInitialized                                 .build/obj_doro67_multi_taylon/lib/lufa/LUFA/Drivers/USB/Core/USBTask.o
                                                  .build/obj_doro67_multi_taylon/lib/lufa/LUFA/Drivers/USB/Core/AVR8/USBController_AVR8.o
                                                  .build/obj_doro67_multi_taylon/lufa.o
USB_ProcessHIDReport                              .build/obj_doro67_multi_taylon/lib/lufa/LUFA/Drivers/USB/Class/Common/HIDParser.o
USB_ResetInterface                                .build/obj_doro67_multi_taylon/lib/lufa/LUFA/Drivers/USB/Core/AVR8/USBController_AVR8.o
USB_SetHIDReportItemInfo                          .build/obj_doro67_multi_taylon/lib/lufa/LUFA/Drivers/USB/Class/Common/HIDParser.o
USB_USBTask                                       .build/obj_doro67_multi_taylon/lib/lufa/LUFA/Drivers/USB/Core/USBTask.o
                                                  .build/obj_doro67_multi_taylon/lufa.o
__bad_interrupt                                   /usr/lib/gcc/avr/4.9.2/../../../avr/lib/avr5/crtatmega32u4.o
__bss_end                                         /usr/lib/gcc/avr/4.9.2/avr5/libgcc.a(_clear_bss.o)
__bss_start                                       /usr/lib/gcc/avr/4.9.2/avr5/libgcc.a(_clear_bss.o)
__data_end                                        /usr/lib/gcc/avr/4.9.2/avr5/libgcc.a(_copy_data.o)
__data_load_start                                 /usr/lib/gcc/avr/4.9.2/avr5/libgcc.a(_copy_data.o)
__data_start                                      /usr/lib/gcc/avr/4.9.2/avr5/libgcc.a(_copy_data.o)
__divmodhi4                                       /usr/lib/gcc/avr/4.9.2/avr5/libgcc.a(_divmodhi4.o)
                                                  .build/obj_doro67_multi_taylon/common/mousekey.o
__do_clear_bss                                    /usr/lib/gcc/avr/4.9.2/avr5/libgcc.a(_clear_bss.o)
                                                  .build/obj_doro67_multi_taylon/lib/lufa/LUFA/Drivers/USB/Core/USBTask.o
                                                  .build/obj_doro67_multi_taylon/lib/lufa/LUFA/Drivers/USB/Core/DeviceStandardReq.o
                                                  .build/obj_doro67_multi_taylon/outputselect.o
                                                  .build/obj_doro67_multi_taylon/lufa.o
                                                  .build/obj_doro67_multi_taylon/common/mousekey.o
                                                  .build/obj_doro67_multi_taylon/common/magic.o
                                                  .build/obj_doro67_multi_taylon/common/avr/timer.o
                                                  .build/obj_doro67_multi_taylon/common/avr/suspend.o
                                                  .build/obj_doro67_multi_taylon/common/debug.o
                                                  .build/obj_doro67_multi_taylon/common/action_util.o
                                                  .build/obj_doro67_multi_taylon/common/action_layer.o
                                                  .build/obj_doro67_multi_taylon/common/action_tapping.o
                                                  .build/obj_doro67_multi_taylon/common/action.o
                                                  .build/obj_doro67_multi_taylon/common/keyboard.o
                                                  .build/obj_doro67_multi_taylon/common/host.o
                                                  .build/obj_doro67_multi_taylon/quantum/process_keycode/process_space_cadet.o
                                                  .build/obj_doro67_multi_taylon/quantum/backlight/backlight.o
                                                  .build/obj_doro67_multi_taylon/quantum/process_keycode/process_tap_dance.o
                                                  .build/obj_doro67_multi_taylon/quantum/debounce/sym_g.o
                                                  .build/obj_doro67_multi_taylon/quantum/matrix.o
                                                  .build/obj_doro67_multi_taylon/quantum/quantum.o
__do_copy_data                                    /usr/lib/gcc/avr/4.9.2/avr5/libgcc.a(_copy_data.o)
                                                  .build/obj_doro67_multi_taylon/lufa.o
                                                  .build/obj_doro67_multi_taylon/common/mousekey.o
                                                  .build/obj_doro67_multi_taylon/common/action_util.o
                                                  .build/obj_doro67_multi_taylon/quantum/process_keycode/process_tap_dance.o
                                                  .build/obj_doro67_multi_taylon/quantum/matrix.o
                                                  .build/obj_doro67_multi_taylon/keyboards/doro67/multi/keymaps/taylon/keymap.o
__heap_end                                        /usr/lib/gcc/avr/4.9.2/../../../avr/lib/avr5/crtatmega32u4.o
__init                                            /usr/lib/gcc/avr/4.9.2/../../../avr/lib/avr5/crtatmega32u4.o
__mulsi3                                          /usr/lib/gcc/avr/4.9.2/avr5/libgcc.a(_mulsi3.o)
                                                  .build/obj_doro67_multi_taylon/quantum/backlight/backlight_avr.o
__muluhisi3                                       /usr/lib/gcc/avr/4.9.2/avr5/libgcc.a(_muluhisi3.o)
                                                  /usr/lib/gcc/avr/4.9.2/avr5/libgcc.a(_mulsi3.o)
__stack                                           /usr/lib/gcc/avr/4.9.2/../../../avr/lib/avr5/crtatmega32u4.o
__tablejump2__                                    /usr/lib/gcc/avr/4.9.2/avr5/libgcc.a(_tablejump2.o)
                                                  .build/obj_doro67_multi_taylon/lib/lufa/LUFA/Drivers/USB/Core/DeviceStandardReq.o
                                                  .build/obj_doro67_multi_taylon/common/action.o
__udivmodhi4                                      /usr/lib/gcc/avr/4.9.2/avr5/libgcc.a(_udivmodhi4.o)
                                                  /usr/lib/gcc/avr/4.9.2/avr5/libgcc.a(_divmodhi4.o)
                                                  .build/obj_doro67_multi_taylon/quantum/backlight/backlight_avr.o
__udivmodsi4                                      /usr/lib/gcc/avr/4.9.2/avr5/libgcc.a(_udivmodsi4.o)
                                                  .build/obj_doro67_multi_taylon/quantum/backlight/backlight_avr.o
__umulhisi3                                       /usr/lib/gcc/avr/4.9.2/avr5/libgcc.a(_umulhisi3.o)
                                                  /usr/lib/gcc/avr/4.9.2/avr5/libgcc.a(_muluhisi3.o)
                                                  .build/obj_doro67_multi_taylon/quantum/backlight/backlight_avr.o
__vector_1                                        /usr/lib/gcc/avr/4.9.2/../../../avr/lib/avr5/crtatmega32u4.o
__vector_10                                       .build/obj_doro67_multi_taylon/lib/lufa/LUFA/Drivers/USB/Core/AVR8/USBInterrupt_AVR8.o
                                                  /usr/lib/gcc/avr/4.9.2/../../../avr/lib/avr5/crtatmega32u4.o
__vector_11                                       .build/obj_doro67_multi_taylon/lib/lufa/LUFA/Drivers/USB/Core/AVR8/USBInterrupt_AVR8.o
                                                  /usr/lib/gcc/avr/4.9.2/../../../avr/lib/avr5/crtatmega32u4.o
__vector_12                                       .build/obj_doro67_multi_taylon/common/avr/suspend.o
                                                  /usr/lib/gcc/avr/4.9.2/../../../avr/lib/avr5/crtatmega32u4.o
__vector_13                                       /usr/lib/gcc/avr/4.9.2/../../../avr/lib/avr5/crtatmega32u4.o
__vector_14                                       /usr/lib/gcc/avr/4.9.2/../../../avr/lib/avr5/crtatmega32u4.o
__vector_15                                       /usr/lib/gcc/avr/4.9.2/../../../avr/lib/avr5/crtatmega32u4.o
__vector_16                                       /usr/lib/gcc/avr/4.9.2/../../../avr/lib/avr5/crtatmega32u4.o
__vector_17                                       /usr/lib/gcc/avr/4.9.2/../../../avr/lib/avr5/crtatmega32u4.o
__vector_18                                       /usr/lib/gcc/avr/4.9.2/../../../avr/lib/avr5/crtatmega32u4.o
__vector_19                                       /usr/lib/gcc/avr/4.9.2/../../../avr/lib/avr5/crtatmega32u4.o
__vector_2                                        /usr/lib/gcc/avr/4.9.2/../../../avr/lib/avr5/crtatmega32u4.o
__vector_20                                       /usr/lib/gcc/avr/4.9.2/../../../avr/lib/avr5/crtatmega32u4.o
__vector_21                                       .build/obj_doro67_multi_taylon/common/avr/timer.o
                                                  /usr/lib/gcc/avr/4.9.2/../../../avr/lib/avr5/crtatmega32u4.o
__vector_22                                       /usr/lib/gcc/avr/4.9.2/../../../avr/lib/avr5/crtatmega32u4.o
__vector_23                                       /usr/lib/gcc/avr/4.9.2/../../../avr/lib/avr5/crtatmega32u4.o
__vector_24                                       /usr/lib/gcc/avr/4.9.2/../../../avr/lib/avr5/crtatmega32u4.o
__vector_25                                       /usr/lib/gcc/avr/4.9.2/../../../avr/lib/avr5/crtatmega32u4.o
__vector_26                                       /usr/lib/gcc/avr/4.9.2/../../../avr/lib/avr5/crtatmega32u4.o
__vector_27                                       /usr/lib/gcc/avr/4.9.2/../../../avr/lib/avr5/crtatmega32u4.o
__vector_28                                       /usr/lib/gcc/avr/4.9.2/../../../avr/lib/avr5/crtatmega32u4.o
__vector_29                                       /usr/lib/gcc/avr/4.9.2/../../../avr/lib/avr5/crtatmega32u4.o
__vector_3                                        /usr/lib/gcc/avr/4.9.2/../../../avr/lib/avr5/crtatmega32u4.o
__vector_30                                       /usr/lib/gcc/avr/4.9.2/../../../avr/lib/avr5/crtatmega32u4.o
__vector_31                                       /usr/lib/gcc/avr/4.9.2/../../../avr/lib/avr5/crtatmega32u4.o
__vector_32                                       /usr/lib/gcc/avr/4.9.2/../../../avr/lib/avr5/crtatmega32u4.o
__vector_33                                       /usr/lib/gcc/avr/4.9.2/../../../avr/lib/avr5/crtatmega32u4.o
__vector_34                                       /usr/lib/gcc/avr/4.9.2/../../../avr/lib/avr5/crtatmega32u4.o
__vector_35                                       /usr/lib/gcc/avr/4.9.2/../../../avr/lib/avr5/crtatmega32u4.o
__vector_36                                       /usr/lib/gcc/avr/4.9.2/../../../avr/lib/avr5/crtatmega32u4.o
__vector_37                                       /usr/lib/gcc/avr/4.9.2/../../../avr/lib/avr5/crtatmega32u4.o
__vector_38                                       /usr/lib/gcc/avr/4.9.2/../../../avr/lib/avr5/crtatmega32u4.o
__vector_39                                       /usr/lib/gcc/avr/4.9.2/../../../avr/lib/avr5/crtatmega32u4.o
__vector_4                                        /usr/lib/gcc/avr/4.9.2/../../../avr/lib/avr5/crtatmega32u4.o
__vector_40                                       /usr/lib/gcc/avr/4.9.2/../../../avr/lib/avr5/crtatmega32u4.o
__vector_41                                       /usr/lib/gcc/avr/4.9.2/../../../avr/lib/avr5/crtatmega32u4.o
__vector_42                                       /usr/lib/gcc/avr/4.9.2/../../../avr/lib/avr5/crtatmega32u4.o
__vector_5                                        /usr/lib/gcc/avr/4.9.2/../../../avr/lib/avr5/crtatmega32u4.o
__vector_6                                        /usr/lib/gcc/avr/4.9.2/../../../avr/lib/avr5/crtatmega32u4.o
__vector_7                                        /usr/lib/gcc/avr/4.9.2/../../../avr/lib/avr5/crtatmega32u4.o
__vector_8                                        /usr/lib/gcc/avr/4.9.2/../../../avr/lib/avr5/crtatmega32u4.o
__vector_9                                        /usr/lib/gcc/avr/4.9.2/../../../avr/lib/avr5/crtatmega32u4.o
__vector_default                                  /usr/lib/gcc/avr/4.9.2/../../../avr/lib/avr5/crtatmega32u4.o
__vectors                                         /usr/lib/gcc/avr/4.9.2/../../../avr/lib/avr5/crtatmega32u4.o
__xprintf                                         .build/obj_doro67_multi_taylon/common/avr/xprintf.o
_div                                              /usr/lib/gcc/avr/4.9.2/avr5/libgcc.a(_divmodhi4.o)
_exit                                             /usr/lib/gcc/avr/4.9.2/avr5/libgcc.a(_exit.o)
action_exec                                       .build/obj_doro67_multi_taylon/common/action.o
                                                  .build/obj_doro67_multi_taylon/common/keyboard.o
action_for_key                                    .build/obj_doro67_multi_taylon/quantum/keymap_common.o
                                                  .build/obj_doro67_multi_taylon/common/action_layer.o
action_function                                   .build/obj_doro67_multi_taylon/quantum/keymap_common.o
                                                  .build/obj_doro67_multi_taylon/common/action.o
action_get_macro                                  .build/obj_doro67_multi_taylon/quantum/keymap_common.o
                                                  .build/obj_doro67_multi_taylon/common/action.o
action_macro_play                                 .build/obj_doro67_multi_taylon/common/action_macro.o
                                                  .build/obj_doro67_multi_taylon/common/action.o
action_tapping_process                            .build/obj_doro67_multi_taylon/common/action_tapping.o
                                                  .build/obj_doro67_multi_taylon/common/action.o
add_key                                           .build/obj_doro67_multi_taylon/common/action_util.o
add_key_byte                                      .build/obj_doro67_multi_taylon/common/report.o
add_key_to_report                                 .build/obj_doro67_multi_taylon/common/report.o
                                                  .build/obj_doro67_multi_taylon/common/action_util.o
                                                  .build/obj_doro67_multi_taylon/common/action.o
                                                  .build/obj_doro67_multi_taylon/quantum/quantum.o
add_macro_mods                                    .build/obj_doro67_multi_taylon/common/action_util.o
                                                  .build/obj_doro67_multi_taylon/common/action_macro.o
add_mods                                          .build/obj_doro67_multi_taylon/common/action_util.o
                                                  .build/obj_doro67_multi_taylon/common/action.o
                                                  .build/obj_doro67_multi_taylon/quantum/process_keycode/process_tap_dance.o
add_weak_mods                                     .build/obj_doro67_multi_taylon/common/action_util.o
                                                  .build/obj_doro67_multi_taylon/common/action.o
                                                  .build/obj_doro67_multi_taylon/quantum/process_keycode/process_tap_dance.o
api_send_unicode                                  .build/obj_doro67_multi_taylon/quantum/quantum.o
ascii_to_altgr_lut                                .build/obj_doro67_multi_taylon/quantum/quantum.o
ascii_to_keycode_lut                              .build/obj_doro67_multi_taylon/quantum/quantum.o
ascii_to_shift_lut                                .build/obj_doro67_multi_taylon/quantum/quantum.o
auto_detect_output                                .build/obj_doro67_multi_taylon/outputselect.o
backlight_config                                  .build/obj_doro67_multi_taylon/quantum/backlight/backlight.o
backlight_decrease                                .build/obj_doro67_multi_taylon/quantum/backlight/backlight.o
                                                  .build/obj_doro67_multi_taylon/common/action.o
backlight_disable                                 .build/obj_doro67_multi_taylon/quantum/backlight/backlight.o
backlight_enable                                  .build/obj_doro67_multi_taylon/quantum/backlight/backlight.o
backlight_increase                                .build/obj_doro67_multi_taylon/quantum/backlight/backlight.o
                                                  .build/obj_doro67_multi_taylon/common/action.o
backlight_init                                    .build/obj_doro67_multi_taylon/quantum/backlight/backlight.o
                                                  .build/obj_doro67_multi_taylon/common/avr/suspend.o
                                                  .build/obj_doro67_multi_taylon/common/keyboard.o
                                                  .build/obj_doro67_multi_taylon/quantum/backlight/backlight_avr.o
backlight_init_ports                              .build/obj_doro67_multi_taylon/quantum/backlight/backlight_avr.o
                                                  .build/obj_doro67_multi_taylon/quantum/quantum.o
backlight_level                                   .build/obj_doro67_multi_taylon/quantum/backlight/backlight.o
                                                  .build/obj_doro67_multi_taylon/common/action.o
backlight_off                                     .build/obj_doro67_multi_taylon/quantum/backlight/backlight_avr.o
backlight_on                                      .build/obj_doro67_multi_taylon/quantum/backlight/backlight_avr.o
backlight_set                                     .build/obj_doro67_multi_taylon/quantum/backlight/backlight_avr.o
                                                  .build/obj_doro67_multi_taylon/common/avr/suspend.o
                                                  .build/obj_doro67_multi_taylon/quantum/backlight/backlight.o
backlight_step                                    .build/obj_doro67_multi_taylon/quantum/backlight/backlight.o
                                                  .build/obj_doro67_multi_taylon/common/action.o
backlight_task                                    .build/obj_doro67_multi_taylon/quantum/backlight/backlight_avr.o
                                                  .build/obj_doro67_multi_taylon/quantum/quantum.o
backlight_toggle                                  .build/obj_doro67_multi_taylon/quantum/backlight/backlight.o
                                                  .build/obj_doro67_multi_taylon/common/action.o
biton                                             .build/obj_doro67_multi_taylon/common/util.o
biton16                                           .build/obj_doro67_multi_taylon/common/util.o
biton32                                           .build/obj_doro67_multi_taylon/common/util.o
bitpop                                            .build/obj_doro67_multi_taylon/common/util.o
                                                  .build/obj_doro67_multi_taylon/common/action_util.o
bitpop16                                          .build/obj_doro67_multi_taylon/common/util.o
                                                  .build/obj_doro67_multi_taylon/quantum/matrix.o
bitpop32                                          .build/obj_doro67_multi_taylon/common/util.o
bitrev                                            .build/obj_doro67_multi_taylon/common/util.o
bitrev16                                          .build/obj_doro67_multi_taylon/common/util.o
bitrev32                                          .build/obj_doro67_multi_taylon/common/util.o
bootloader_jump                                   .build/obj_doro67_multi_taylon/common/avr/bootloader.o
                                                  .build/obj_doro67_multi_taylon/quantum/quantum.o
bootloader_jump_after_watchdog_reset              .build/obj_doro67_multi_taylon/common/avr/bootloader.o
bootmagic_lite                                    .build/obj_doro67_multi_taylon/quantum/quantum.o
clear_keyboard                                    .build/obj_doro67_multi_taylon/common/action.o
                                                  .build/obj_doro67_multi_taylon/lufa.o
                                                  .build/obj_doro67_multi_taylon/common/avr/suspend.o
                                                  .build/obj_doro67_multi_taylon/common/action_tapping.o
                                                  .build/obj_doro67_multi_taylon/quantum/quantum.o
clear_keyboard_but_mods                           .build/obj_doro67_multi_taylon/common/action.o
clear_keyboard_but_mods_and_keys                  .build/obj_doro67_multi_taylon/common/action.o
                                                  .build/obj_doro67_multi_taylon/common/action_layer.o
clear_keys                                        .build/obj_doro67_multi_taylon/common/action_util.o
clear_keys_from_report                            .build/obj_doro67_multi_taylon/common/report.o
                                                  .build/obj_doro67_multi_taylon/common/action_util.o
                                                  .build/obj_doro67_multi_taylon/common/action.o
clear_macro_mods                                  .build/obj_doro67_multi_taylon/common/action_util.o
                                                  .build/obj_doro67_multi_taylon/common/action.o
clear_mods                                        .build/obj_doro67_multi_taylon/common/action_util.o
                                                  .build/obj_doro67_multi_taylon/common/action.o
clear_oneshot_layer_state                         .build/obj_doro67_multi_taylon/common/action_util.o
                                                  .build/obj_doro67_multi_taylon/common/action.o
clear_oneshot_locked_mods                         .build/obj_doro67_multi_taylon/common/action_util.o
clear_oneshot_mods                                .build/obj_doro67_multi_taylon/common/action_util.o
                                                  .build/obj_doro67_multi_taylon/common/action.o
clear_weak_mods                                   .build/obj_doro67_multi_taylon/common/action_util.o
                                                  .build/obj_doro67_multi_taylon/common/action.o
debounce                                          .build/obj_doro67_multi_taylon/quantum/debounce/sym_g.o
                                                  .build/obj_doro67_multi_taylon/quantum/matrix.o
debounce_active                                   .build/obj_doro67_multi_taylon/quantum/debounce/sym_g.o
                                                  .build/obj_doro67_multi_taylon/quantum/matrix.o
debounce_init                                     .build/obj_doro67_multi_taylon/quantum/debounce/sym_g.o
                                                  .build/obj_doro67_multi_taylon/quantum/matrix.o
debug_action                                      .build/obj_doro67_multi_taylon/common/action.o
debug_config                                      .build/obj_doro67_multi_taylon/common/debug.o
                                                  .build/obj_doro67_multi_taylon/common/magic.o
                                                  .build/obj_doro67_multi_taylon/common/keyboard.o
                                                  .build/obj_doro67_multi_taylon/quantum/quantum.o
debug_event                                       .build/obj_doro67_multi_taylon/common/action.o
                                                  .build/obj_doro67_multi_taylon/common/action_tapping.o
debug_record                                      .build/obj_doro67_multi_taylon/common/action.o
                                                  .build/obj_doro67_multi_taylon/common/action_tapping.o
default_layer_and                                 .build/obj_doro67_multi_taylon/common/action_layer.o
                                                  .build/obj_doro67_multi_taylon/common/action.o
default_layer_debug                               .build/obj_doro67_multi_taylon/common/action_layer.o
                                                  .build/obj_doro67_multi_taylon/common/action.o
default_layer_or                                  .build/obj_doro67_multi_taylon/common/action_layer.o
                                                  .build/obj_doro67_multi_taylon/common/action.o
default_layer_set                                 .build/obj_doro67_multi_taylon/common/action_layer.o
                                                  .build/obj_doro67_multi_taylon/common/magic.o
                                                  .build/obj_doro67_multi_taylon/common/action.o
                                                  .build/obj_doro67_multi_taylon/quantum/quantum.o
default_layer_state                               .build/obj_doro67_multi_taylon/common/action_layer.o
                                                  .build/obj_doro67_multi_taylon/common/eeconfig.o
default_layer_state_set_kb                        .build/obj_doro67_multi_taylon/common/action_layer.o
default_layer_state_set_user                      .build/obj_doro67_multi_taylon/common/action_layer.o
default_layer_xor                                 .build/obj_doro67_multi_taylon/common/action_layer.o
                                                  .build/obj_doro67_multi_taylon/common/action.o
del_key                                           .build/obj_doro67_multi_taylon/common/action_util.o
del_key_byte                                      .build/obj_doro67_multi_taylon/common/report.o
del_key_from_report                               .build/obj_doro67_multi_taylon/common/report.o
                                                  .build/obj_doro67_multi_taylon/common/action_util.o
                                                  .build/obj_doro67_multi_taylon/common/action.o
                                                  .build/obj_doro67_multi_taylon/quantum/quantum.o
del_macro_mods                                    .build/obj_doro67_multi_taylon/common/action_util.o
                                                  .build/obj_doro67_multi_taylon/common/action_macro.o
del_mods                                          .build/obj_doro67_multi_taylon/common/action_util.o
                                                  .build/obj_doro67_multi_taylon/common/action.o
                                                  .build/obj_doro67_multi_taylon/quantum/process_keycode/process_tap_dance.o
del_weak_mods                                     .build/obj_doro67_multi_taylon/common/action_util.o
                                                  .build/obj_doro67_multi_taylon/common/action.o
                                                  .build/obj_doro67_multi_taylon/quantum/process_keycode/process_tap_dance.o
desired_output                                    .build/obj_doro67_multi_taylon/outputselect.o
disable_action_cache                              .build/obj_doro67_multi_taylon/common/action.o
                                                  .build/obj_doro67_multi_taylon/common/action_layer.o
                                                  .build/obj_doro67_multi_taylon/quantum/quantum.o
disable_jtag                                      .build/obj_doro67_multi_taylon/common/keyboard.o
eeconfig_disable                                  .build/obj_doro67_multi_taylon/common/eeconfig.o
                                                  .build/obj_doro67_multi_taylon/quantum/quantum.o
eeconfig_enable                                   .build/obj_doro67_multi_taylon/common/eeconfig.o
eeconfig_init                                     .build/obj_doro67_multi_taylon/common/eeconfig.o
                                                  .build/obj_doro67_multi_taylon/common/magic.o
                                                  .build/obj_doro67_multi_taylon/quantum/backlight/backlight.o
                                                  .build/obj_doro67_multi_taylon/quantum/quantum.o
eeconfig_init_kb                                  .build/obj_doro67_multi_taylon/common/eeconfig.o
eeconfig_init_quantum                             .build/obj_doro67_multi_taylon/common/eeconfig.o
eeconfig_init_user                                .build/obj_doro67_multi_taylon/common/eeconfig.o
eeconfig_is_disabled                              .build/obj_doro67_multi_taylon/common/eeconfig.o
eeconfig_is_enabled                               .build/obj_doro67_multi_taylon/common/eeconfig.o
                                                  .build/obj_doro67_multi_taylon/common/magic.o
                                                  .build/obj_doro67_multi_taylon/quantum/backlight/backlight.o
                                                  .build/obj_doro67_multi_taylon/quantum/quantum.o
eeconfig_read_audio                               .build/obj_doro67_multi_taylon/common/eeconfig.o
eeconfig_read_backlight                           .build/obj_doro67_multi_taylon/common/eeconfig.o
                                                  .build/obj_doro67_multi_taylon/quantum/backlight/backlight.o
eeconfig_read_debug                               .build/obj_doro67_multi_taylon/common/eeconfig.o
                                                  .build/obj_doro67_multi_taylon/common/magic.o
eeconfig_read_default_layer                       .build/obj_doro67_multi_taylon/common/eeconfig.o
                                                  .build/obj_doro67_multi_taylon/common/magic.o
eeconfig_read_handedness                          .build/obj_doro67_multi_taylon/common/eeconfig.o
eeconfig_read_haptic                              .build/obj_doro67_multi_taylon/common/eeconfig.o
eeconfig_read_kb                                  .build/obj_doro67_multi_taylon/common/eeconfig.o
eeconfig_read_keymap                              .build/obj_doro67_multi_taylon/common/eeconfig.o
                                                  .build/obj_doro67_multi_taylon/common/magic.o
                                                  .build/obj_doro67_multi_taylon/quantum/quantum.o
eeconfig_read_user                                .build/obj_doro67_multi_taylon/common/eeconfig.o
eeconfig_update_audio                             .build/obj_doro67_multi_taylon/common/eeconfig.o
eeconfig_update_backlight                         .build/obj_doro67_multi_taylon/common/eeconfig.o
                                                  .build/obj_doro67_multi_taylon/quantum/backlight/backlight.o
eeconfig_update_debug                             .build/obj_doro67_multi_taylon/common/eeconfig.o
eeconfig_update_default_layer                     .build/obj_doro67_multi_taylon/common/eeconfig.o
                                                  .build/obj_doro67_multi_taylon/quantum/quantum.o
eeconfig_update_handedness                        .build/obj_doro67_multi_taylon/common/eeconfig.o
                                                  .build/obj_doro67_multi_taylon/quantum/quantum.o
eeconfig_update_haptic                            .build/obj_doro67_multi_taylon/common/eeconfig.o
eeconfig_update_kb                                .build/obj_doro67_multi_taylon/common/eeconfig.o
eeconfig_update_keymap                            .build/obj_doro67_multi_taylon/common/eeconfig.o
                                                  .build/obj_doro67_multi_taylon/quantum/quantum.o
eeconfig_update_user                              .build/obj_doro67_multi_taylon/common/eeconfig.o
eeprom_read_block                                 /usr/lib/gcc/avr/4.9.2/../../../avr/lib/avr5/libatmega32u4.a(eerd_block.o)
eeprom_read_blraw                                 /usr/lib/gcc/avr/4.9.2/../../../avr/lib/avr5/libatmega32u4.a(eerd_block.o)
                                                  /usr/lib/gcc/avr/4.9.2/../../../avr/lib/avr5/libatmega32u4.a(eerd_word.o)
                                                  /usr/lib/gcc/avr/4.9.2/../../../avr/lib/avr5/libatmega32u4.a(eerd_dword.o)
eeprom_read_byte                                  /usr/lib/gcc/avr/4.9.2/../../../avr/lib/avr5/libatmega32u4.a(eerd_byte.o)
                                                  .build/obj_doro67_multi_taylon/lib/lufa/LUFA/Drivers/USB/Core/AVR8/EndpointStream_AVR8.o
                                                  .build/obj_doro67_multi_taylon/common/eeconfig.o
eeprom_read_dword                                 /usr/lib/gcc/avr/4.9.2/../../../avr/lib/avr5/libatmega32u4.a(eerd_dword.o)
                                                  .build/obj_doro67_multi_taylon/common/eeconfig.o
eeprom_read_float                                 /usr/lib/gcc/avr/4.9.2/../../../avr/lib/avr5/libatmega32u4.a(eerd_dword.o)
eeprom_read_word                                  /usr/lib/gcc/avr/4.9.2/../../../avr/lib/avr5/libatmega32u4.a(eerd_word.o)
                                                  .build/obj_doro67_multi_taylon/common/eeconfig.o
eeprom_update_byte                                /usr/lib/gcc/avr/4.9.2/../../../avr/lib/avr5/libatmega32u4.a(eeupd_byte.o)
                                                  /usr/lib/gcc/avr/4.9.2/../../../avr/lib/avr5/libatmega32u4.a(eeupd_word.o)
                                                  /usr/lib/gcc/avr/4.9.2/../../../avr/lib/avr5/libatmega32u4.a(eeupd_dword.o)
                                                  .build/obj_doro67_multi_taylon/lib/lufa/LUFA/Drivers/USB/Core/AVR8/EndpointStream_AVR8.o
                                                  .build/obj_doro67_multi_taylon/common/eeconfig.o
eeprom_update_dword                               /usr/lib/gcc/avr/4.9.2/../../../avr/lib/avr5/libatmega32u4.a(eeupd_dword.o)
                                                  .build/obj_doro67_multi_taylon/common/eeconfig.o
eeprom_update_float                               /usr/lib/gcc/avr/4.9.2/../../../avr/lib/avr5/libatmega32u4.a(eeupd_dword.o)
eeprom_update_r18                                 /usr/lib/gcc/avr/4.9.2/../../../avr/lib/avr5/libatmega32u4.a(eeupd_byte.o)
                                                  /usr/lib/gcc/avr/4.9.2/../../../avr/lib/avr5/libatmega32u4.a(eeupd_word.o)
                                                  /usr/lib/gcc/avr/4.9.2/../../../avr/lib/avr5/libatmega32u4.a(eeupd_dword.o)
eeprom_update_word                                /usr/lib/gcc/avr/4.9.2/../../../avr/lib/avr5/libatmega32u4.a(eeupd_word.o)
                                                  .build/obj_doro67_multi_taylon/common/eeconfig.o
exit                                              /usr/lib/gcc/avr/4.9.2/avr5/libgcc.a(_exit.o)
                                                  /usr/lib/gcc/avr/4.9.2/../../../avr/lib/avr5/crtatmega32u4.o
fn_actions                                        .build/obj_doro67_multi_taylon/quantum/keymap_common.o
get_backlight_level                               .build/obj_doro67_multi_taylon/quantum/backlight/backlight.o
get_event_keycode                                 .build/obj_doro67_multi_taylon/quantum/quantum.o
get_first_key                                     .build/obj_doro67_multi_taylon/common/report.o
get_macro_mods                                    .build/obj_doro67_multi_taylon/common/action_util.o
get_mods                                          .build/obj_doro67_multi_taylon/common/action_util.o
                                                  .build/obj_doro67_multi_taylon/quantum/process_keycode/process_tap_dance.o
                                                  .build/obj_doro67_multi_taylon/quantum/quantum.o
get_oneshot_layer                                 .build/obj_doro67_multi_taylon/common/action_util.o
                                                  .build/obj_doro67_multi_taylon/common/action.o
get_oneshot_layer_state                           .build/obj_doro67_multi_taylon/common/action_util.o
                                                  .build/obj_doro67_multi_taylon/common/action.o
get_oneshot_locked_mods                           .build/obj_doro67_multi_taylon/common/action_util.o
get_oneshot_mods                                  .build/obj_doro67_multi_taylon/common/action_util.o
                                                  .build/obj_doro67_multi_taylon/common/action.o
                                                  .build/obj_doro67_multi_taylon/quantum/process_keycode/process_tap_dance.o
get_record_keycode                                .build/obj_doro67_multi_taylon/quantum/quantum.o
get_tapping_term                                  .build/obj_doro67_multi_taylon/common/action_tapping.o
get_usb_descriptor                                .build/obj_doro67_multi_taylon/usb_descriptor.o
                                                  .build/obj_doro67_multi_taylon/lufa.o
get_weak_mods                                     .build/obj_doro67_multi_taylon/common/action_util.o
                                                  .build/obj_doro67_multi_taylon/quantum/process_keycode/process_tap_dance.o
has_anykey                                        .build/obj_doro67_multi_taylon/common/report.o
                                                  .build/obj_doro67_multi_taylon/common/action_util.o
has_anymod                                        .build/obj_doro67_multi_taylon/common/action_util.o
has_oneshot_mods_timed_out                        .build/obj_doro67_multi_taylon/common/action_util.o
hex_to_keycode                                    .build/obj_doro67_multi_taylon/quantum/quantum.o
host_consumer_send                                .build/obj_doro67_multi_taylon/common/host.o
                                                  .build/obj_doro67_multi_taylon/common/action.o
host_get_driver                                   .build/obj_doro67_multi_taylon/common/host.o
host_keyboard_leds                                .build/obj_doro67_multi_taylon/common/host.o
                                                  .build/obj_doro67_multi_taylon/common/avr/suspend.o
                                                  .build/obj_doro67_multi_taylon/common/action.o
                                                  .build/obj_doro67_multi_taylon/common/keyboard.o
host_keyboard_send                                .build/obj_doro67_multi_taylon/common/host.o
                                                  .build/obj_doro67_multi_taylon/common/action_util.o
host_last_consumer_report                         .build/obj_doro67_multi_taylon/common/host.o
host_last_system_report                           .build/obj_doro67_multi_taylon/common/host.o
host_mouse_send                                   .build/obj_doro67_multi_taylon/common/host.o
                                                  .build/obj_doro67_multi_taylon/common/mousekey.o
host_set_driver                                   .build/obj_doro67_multi_taylon/common/host.o
                                                  .build/obj_doro67_multi_taylon/lufa.o
host_system_send                                  .build/obj_doro67_multi_taylon/common/host.o
                                                  .build/obj_doro67_multi_taylon/common/action.o
is_backlight_enabled                              .build/obj_doro67_multi_taylon/quantum/backlight/backlight.o
is_keyboard_master                                .build/obj_doro67_multi_taylon/common/keyboard.o
is_oneshot_layer_active                           .build/obj_doro67_multi_taylon/common/action_util.o
                                                  .build/obj_doro67_multi_taylon/common/action.o
is_tap_action                                     .build/obj_doro67_multi_taylon/common/action.o
is_tap_key                                        .build/obj_doro67_multi_taylon/common/action.o
                                                  .build/obj_doro67_multi_taylon/common/action_tapping.o
keyboard_idle                                     .build/obj_doro67_multi_taylon/lufa.o
keyboard_init                                     .build/obj_doro67_multi_taylon/common/keyboard.o
                                                  .build/obj_doro67_multi_taylon/lufa.o
keyboard_post_init_kb                             .build/obj_doro67_multi_taylon/common/keyboard.o
keyboard_post_init_user                           .build/obj_doro67_multi_taylon/common/keyboard.o
keyboard_pre_init_kb                              .build/obj_doro67_multi_taylon/common/keyboard.o
keyboard_pre_init_user                            .build/obj_doro67_multi_taylon/common/keyboard.o
keyboard_protocol                                 .build/obj_doro67_multi_taylon/lufa.o
keyboard_report                                   .build/obj_doro67_multi_taylon/common/action_util.o
                                                  .build/obj_doro67_multi_taylon/common/action.o
                                                  .build/obj_doro67_multi_taylon/quantum/quantum.o
keyboard_set_leds                                 .build/obj_doro67_multi_taylon/common/keyboard.o
keyboard_setup                                    .build/obj_doro67_multi_taylon/common/keyboard.o
                                                  .build/obj_doro67_multi_taylon/lufa.o
keyboard_task                                     .build/obj_doro67_multi_taylon/common/keyboard.o
                                                  .build/obj_doro67_multi_taylon/lufa.o
keycode_config                                    .build/obj_doro67_multi_taylon/quantum/keycode_config.o
                                                  .build/obj_doro67_multi_taylon/quantum/keymap_common.o
keymap_config                                     .build/obj_doro67_multi_taylon/common/magic.o
                                                  .build/obj_doro67_multi_taylon/quantum/keycode_config.o
                                                  .build/obj_doro67_multi_taylon/quantum/quantum.o
keymap_function_id_to_action                      .build/obj_doro67_multi_taylon/quantum/keymap_common.o
keymap_key_to_keycode                             .build/obj_doro67_multi_taylon/quantum/keymap_common.o
                                                  .build/obj_doro67_multi_taylon/quantum/quantum.o
keymaps                                           .build/obj_doro67_multi_taylon/keyboards/doro67/multi/keymaps/taylon/keymap.o
                                                  .build/obj_doro67_multi_taylon/quantum/keymap_common.o
layer_and                                         .build/obj_doro67_multi_taylon/common/action_layer.o
                                                  .build/obj_doro67_multi_taylon/common/action.o
layer_clear                                       .build/obj_doro67_multi_taylon/common/action_layer.o
                                                  .build/obj_doro67_multi_taylon/common/action.o
layer_debug                                       .build/obj_doro67_multi_taylon/common/action_layer.o
                                                  .build/obj_doro67_multi_taylon/common/action.o
layer_invert                                      .build/obj_doro67_multi_taylon/common/action_layer.o
                                                  .build/obj_doro67_multi_taylon/common/action.o
layer_move                                        .build/obj_doro67_multi_taylon/common/action_layer.o
                                                  .build/obj_doro67_multi_taylon/common/action.o
                                                  .build/obj_doro67_multi_taylon/quantum/process_keycode/process_tap_dance.o
layer_off                                         .build/obj_doro67_multi_taylon/common/action_layer.o
                                                  .build/obj_doro67_multi_taylon/common/action_util.o
                                                  .build/obj_doro67_multi_taylon/common/action.o
layer_on                                          .build/obj_doro67_multi_taylon/common/action_layer.o
                                                  .build/obj_doro67_multi_taylon/common/action_util.o
                                                  .build/obj_doro67_multi_taylon/common/action.o
layer_or                                          .build/obj_doro67_multi_taylon/common/action_layer.o
                                                  .build/obj_doro67_multi_taylon/common/action.o
layer_state                                       .build/obj_doro67_multi_taylon/common/action_layer.o
                                                  .build/obj_doro67_multi_taylon/quantum/quantum.o
layer_state_cmp                                   .build/obj_doro67_multi_taylon/common/action_layer.o
layer_state_is                                    .build/obj_doro67_multi_taylon/common/action_layer.o
layer_state_set                                   .build/obj_doro67_multi_taylon/common/action_layer.o
                                                  .build/obj_doro67_multi_taylon/common/action.o
                                                  .build/obj_doro67_multi_taylon/quantum/quantum.o
layer_state_set_kb                                .build/obj_doro67_multi_taylon/common/action_layer.o
layer_state_set_user                              .build/obj_doro67_multi_taylon/common/action_layer.o
layer_switch_get_action                           .build/obj_doro67_multi_taylon/common/action_layer.o
                                                  .build/obj_doro67_multi_taylon/common/action_tapping.o
                                                  .build/obj_doro67_multi_taylon/common/action.o
layer_switch_get_layer                            .build/obj_doro67_multi_taylon/common/action_layer.o
                                                  .build/obj_doro67_multi_taylon/quantum/quantum.o
layer_xor                                         .build/obj_doro67_multi_taylon/common/action_layer.o
                                                  .build/obj_doro67_multi_taylon/common/action.o
led_init_ports                                    .build/obj_doro67_multi_taylon/quantum/quantum.o
led_set                                           .build/obj_doro67_multi_taylon/quantum/quantum.o
                                                  .build/obj_doro67_multi_taylon/common/avr/suspend.o
                                                  .build/obj_doro67_multi_taylon/common/action.o
                                                  .build/obj_doro67_multi_taylon/common/keyboard.o
led_set_kb                                        .build/obj_doro67_multi_taylon/keyboards/doro67/multi/multi.o
led_set_user                                      .build/obj_doro67_multi_taylon/quantum/quantum.o
                                                  .build/obj_doro67_multi_taylon/keyboards/doro67/multi/multi.o
lufa_driver                                       .build/obj_doro67_multi_taylon/lufa.o
magic                                             .build/obj_doro67_multi_taylon/common/magic.o
                                                  .build/obj_doro67_multi_taylon/common/keyboard.o
main                                              .build/obj_doro67_multi_taylon/lufa.o
                                                  /usr/lib/gcc/avr/4.9.2/../../../avr/lib/avr5/crtatmega32u4.o
matrix_cols                                       .build/obj_doro67_multi_taylon/quantum/matrix.o
matrix_get_row                                    .build/obj_doro67_multi_taylon/quantum/matrix.o
                                                  .build/obj_doro67_multi_taylon/common/avr/suspend.o
                                                  .build/obj_doro67_multi_taylon/common/keyboard.o
                                                  .build/obj_doro67_multi_taylon/quantum/quantum.o
matrix_init                                       .build/obj_doro67_multi_taylon/quantum/matrix.o
                                                  .build/obj_doro67_multi_taylon/common/keyboard.o
matrix_init_kb                                    .build/obj_doro67_multi_taylon/keyboards/doro67/multi/multi.o
                                                  .build/obj_doro67_multi_taylon/quantum/quantum.o
matrix_init_quantum                               .build/obj_doro67_multi_taylon/quantum/quantum.o
matrix_init_user                                  .build/obj_doro67_multi_taylon/quantum/matrix.o
                                                  .build/obj_doro67_multi_taylon/keyboards/doro67/multi/multi.o
matrix_is_modified                                .build/obj_doro67_multi_taylon/quantum/matrix.o
matrix_is_on                                      .build/obj_doro67_multi_taylon/quantum/matrix.o
matrix_key_count                                  .build/obj_doro67_multi_taylon/quantum/matrix.o
matrix_power_down                                 .build/obj_doro67_multi_taylon/common/avr/suspend.o
matrix_power_up                                   .build/obj_doro67_multi_taylon/common/avr/suspend.o
matrix_print                                      .build/obj_doro67_multi_taylon/quantum/matrix.o
                                                  .build/obj_doro67_multi_taylon/common/keyboard.o
matrix_rows                                       .build/obj_doro67_multi_taylon/quantum/matrix.o
matrix_scan                                       .build/obj_doro67_multi_taylon/quantum/matrix.o
                                                  .build/obj_doro67_multi_taylon/common/avr/suspend.o
                                                  .build/obj_doro67_multi_taylon/common/keyboard.o
                                                  .build/obj_doro67_multi_taylon/quantum/quantum.o
matrix_scan_kb                                    .build/obj_doro67_multi_taylon/keyboards/doro67/multi/multi.o
                                                  .build/obj_doro67_multi_taylon/quantum/quantum.o
matrix_scan_quantum                               .build/obj_doro67_multi_taylon/quantum/quantum.o
matrix_scan_tap_dance                             .build/obj_doro67_multi_taylon/quantum/process_keycode/process_tap_dance.o
                                                  .build/obj_doro67_multi_taylon/quantum/quantum.o
matrix_scan_user                                  .build/obj_doro67_multi_taylon/quantum/matrix.o
                                                  .build/obj_doro67_multi_taylon/keyboards/doro67/multi/multi.o
matrix_setup                                      .build/obj_doro67_multi_taylon/common/keyboard.o
mk_delay                                          .build/obj_doro67_multi_taylon/common/mousekey.o
mk_interval                                       .build/obj_doro67_multi_taylon/common/mousekey.o
mk_max_speed                                      .build/obj_doro67_multi_taylon/common/mousekey.o
mk_time_to_max                                    .build/obj_doro67_multi_taylon/common/mousekey.o
mk_wheel_max_speed                                .build/obj_doro67_multi_taylon/common/mousekey.o
mk_wheel_time_to_max                              .build/obj_doro67_multi_taylon/common/mousekey.o
mod_config                                        .build/obj_doro67_multi_taylon/quantum/keycode_config.o
                                                  .build/obj_doro67_multi_taylon/quantum/keymap_common.o
mousekey_clear                                    .build/obj_doro67_multi_taylon/common/mousekey.o
                                                  .build/obj_doro67_multi_taylon/common/action.o
mousekey_off                                      .build/obj_doro67_multi_taylon/common/mousekey.o
                                                  .build/obj_doro67_multi_taylon/common/action.o
mousekey_on                                       .build/obj_doro67_multi_taylon/common/mousekey.o
                                                  .build/obj_doro67_multi_taylon/common/action.o
mousekey_send                                     .build/obj_doro67_multi_taylon/common/mousekey.o
                                                  .build/obj_doro67_multi_taylon/common/action.o
mousekey_task                                     .build/obj_doro67_multi_taylon/common/mousekey.o
                                                  .build/obj_doro67_multi_taylon/common/keyboard.o
oneshot_layer_changed_kb                          .build/obj_doro67_multi_taylon/common/action_util.o
oneshot_layer_changed_user                        .build/obj_doro67_multi_taylon/common/action_util.o
oneshot_locked_mods_changed_kb                    .build/obj_doro67_multi_taylon/common/action_util.o
oneshot_locked_mods_changed_user                  .build/obj_doro67_multi_taylon/common/action_util.o
oneshot_mods_changed_kb                           .build/obj_doro67_multi_taylon/common/action_util.o
oneshot_mods_changed_user                         .build/obj_doro67_multi_taylon/common/action_util.o
perform_space_cadet                               .build/obj_doro67_multi_taylon/quantum/process_keycode/process_space_cadet.o
preprocess_tap_dance                              .build/obj_doro67_multi_taylon/quantum/process_keycode/process_tap_dance.o
                                                  .build/obj_doro67_multi_taylon/quantum/quantum.o
process_action                                    .build/obj_doro67_multi_taylon/common/action.o
process_action_kb                                 .build/obj_doro67_multi_taylon/quantum/quantum.o
process_record                                    .build/obj_doro67_multi_taylon/common/action.o
                                                  .build/obj_doro67_multi_taylon/common/action_tapping.o
process_record_kb                                 .build/obj_doro67_multi_taylon/keyboards/doro67/multi/multi.o
process_record_nocache                            .build/obj_doro67_multi_taylon/common/action.o
process_record_quantum                            .build/obj_doro67_multi_taylon/quantum/quantum.o
process_record_tap_hint                           .build/obj_doro67_multi_taylon/common/action.o
                                                  .build/obj_doro67_multi_taylon/common/action_tapping.o
process_record_user                               .build/obj_doro67_multi_taylon/quantum/quantum.o
                                                  .build/obj_doro67_multi_taylon/keyboards/doro67/multi/multi.o
process_space_cadet                               .build/obj_doro67_multi_taylon/quantum/process_keycode/process_space_cadet.o
                                                  .build/obj_doro67_multi_taylon/quantum/quantum.o
process_tap_dance                                 .build/obj_doro67_multi_taylon/quantum/process_keycode/process_tap_dance.o
                                                  .build/obj_doro67_multi_taylon/quantum/quantum.o
qk_tap_dance_dual_role_finished                   .build/obj_doro67_multi_taylon/quantum/process_keycode/process_tap_dance.o
qk_tap_dance_dual_role_on_each_tap                .build/obj_doro67_multi_taylon/quantum/process_keycode/process_tap_dance.o
qk_tap_dance_dual_role_reset                      .build/obj_doro67_multi_taylon/quantum/process_keycode/process_tap_dance.o
qk_tap_dance_pair_finished                        .build/obj_doro67_multi_taylon/quantum/process_keycode/process_tap_dance.o
                                                  .build/obj_doro67_multi_taylon/keyboards/doro67/multi/keymaps/taylon/keymap.o
qk_tap_dance_pair_on_each_tap                     .build/obj_doro67_multi_taylon/quantum/process_keycode/process_tap_dance.o
                                                  .build/obj_doro67_multi_taylon/keyboards/doro67/multi/keymaps/taylon/keymap.o
qk_tap_dance_pair_reset                           .build/obj_doro67_multi_taylon/quantum/process_keycode/process_tap_dance.o
                                                  .build/obj_doro67_multi_taylon/keyboards/doro67/multi/keymaps/taylon/keymap.o
read_source_layers_cache                          .build/obj_doro67_multi_taylon/common/action_layer.o
                                                  .build/obj_doro67_multi_taylon/quantum/quantum.o
register_code                                     .build/obj_doro67_multi_taylon/common/action.o
                                                  .build/obj_doro67_multi_taylon/common/action_macro.o
                                                  .build/obj_doro67_multi_taylon/quantum/quantum.o
register_code16                                   .build/obj_doro67_multi_taylon/quantum/quantum.o
                                                  .build/obj_doro67_multi_taylon/quantum/process_keycode/process_tap_dance.o
register_mods                                     .build/obj_doro67_multi_taylon/common/action.o
                                                  .build/obj_doro67_multi_taylon/quantum/process_keycode/process_space_cadet.o
                                                  .build/obj_doro67_multi_taylon/quantum/quantum.o
register_weak_mods                                .build/obj_doro67_multi_taylon/common/action.o
                                                  .build/obj_doro67_multi_taylon/quantum/quantum.o
reset_key                                         .build/obj_doro67_multi_taylon/common/avr/bootloader.o
reset_keyboard                                    .build/obj_doro67_multi_taylon/quantum/quantum.o
reset_oneshot_layer                               .build/obj_doro67_multi_taylon/common/action_util.o
reset_tap_dance                                   .build/obj_doro67_multi_taylon/quantum/process_keycode/process_tap_dance.o
rgblight_decrease_hue                             .build/obj_doro67_multi_taylon/quantum/quantum.o
rgblight_decrease_sat                             .build/obj_doro67_multi_taylon/quantum/quantum.o
rgblight_decrease_speed                           .build/obj_doro67_multi_taylon/quantum/quantum.o
rgblight_decrease_val                             .build/obj_doro67_multi_taylon/quantum/quantum.o
rgblight_increase_hue                             .build/obj_doro67_multi_taylon/quantum/quantum.o
rgblight_increase_sat                             .build/obj_doro67_multi_taylon/quantum/quantum.o
rgblight_increase_speed                           .build/obj_doro67_multi_taylon/quantum/quantum.o
rgblight_increase_val                             .build/obj_doro67_multi_taylon/quantum/quantum.o
rgblight_step                                     .build/obj_doro67_multi_taylon/quantum/quantum.o
rgblight_step_reverse                             .build/obj_doro67_multi_taylon/quantum/quantum.o
rgblight_toggle                                   .build/obj_doro67_multi_taylon/quantum/quantum.o
send_byte                                         .build/obj_doro67_multi_taylon/quantum/quantum.o
send_char                                         .build/obj_doro67_multi_taylon/quantum/quantum.o
send_dword                                        .build/obj_doro67_multi_taylon/quantum/quantum.o
send_keyboard_report                              .build/obj_doro67_multi_taylon/common/action_util.o
                                                  .build/obj_doro67_multi_taylon/common/action_macro.o
                                                  .build/obj_doro67_multi_taylon/common/action.o
                                                  .build/obj_doro67_multi_taylon/quantum/process_keycode/process_tap_dance.o
                                                  .build/obj_doro67_multi_taylon/quantum/quantum.o
send_nibble                                       .build/obj_doro67_multi_taylon/quantum/quantum.o
send_string                                       .build/obj_doro67_multi_taylon/quantum/quantum.o
send_string_P                                     .build/obj_doro67_multi_taylon/quantum/quantum.o
send_string_with_delay                            .build/obj_doro67_multi_taylon/quantum/quantum.o
send_string_with_delay_P                          .build/obj_doro67_multi_taylon/quantum/quantum.o
send_word                                         .build/obj_doro67_multi_taylon/quantum/quantum.o
sendchar                                          .build/obj_doro67_multi_taylon/lufa.o
set_macro_mods                                    .build/obj_doro67_multi_taylon/common/action_util.o
set_mods                                          .build/obj_doro67_multi_taylon/common/action_util.o
set_oneshot_layer                                 .build/obj_doro67_multi_taylon/common/action_util.o
                                                  .build/obj_doro67_multi_taylon/common/action.o
set_oneshot_locked_mods                           .build/obj_doro67_multi_taylon/common/action_util.o
set_oneshot_mods                                  .build/obj_doro67_multi_taylon/common/action_util.o
                                                  .build/obj_doro67_multi_taylon/common/action.o
set_output                                        .build/obj_doro67_multi_taylon/outputselect.o
                                                  .build/obj_doro67_multi_taylon/quantum/quantum.o
set_output_user                                   .build/obj_doro67_multi_taylon/outputselect.o
set_single_persistent_default_layer               .build/obj_doro67_multi_taylon/quantum/quantum.o
set_weak_mods                                     .build/obj_doro67_multi_taylon/common/action_util.o
shutdown_user                                     .build/obj_doro67_multi_taylon/quantum/quantum.o
source_layers_cache                               .build/obj_doro67_multi_taylon/common/action_layer.o
startup_user                                      .build/obj_doro67_multi_taylon/quantum/quantum.o
store_or_get_action                               .build/obj_doro67_multi_taylon/common/action_layer.o
                                                  .build/obj_doro67_multi_taylon/common/action.o
suspend_idle                                      .build/obj_doro67_multi_taylon/common/avr/suspend.o
suspend_power_down                                .build/obj_doro67_multi_taylon/common/avr/suspend.o
                                                  .build/obj_doro67_multi_taylon/lufa.o
suspend_power_down_kb                             .build/obj_doro67_multi_taylon/common/avr/suspend.o
suspend_power_down_user                           .build/obj_doro67_multi_taylon/common/avr/suspend.o
suspend_wakeup_condition                          .build/obj_doro67_multi_taylon/common/avr/suspend.o
                                                  .build/obj_doro67_multi_taylon/lufa.o
suspend_wakeup_init                               .build/obj_doro67_multi_taylon/common/avr/suspend.o
                                                  .build/obj_doro67_multi_taylon/lufa.o
suspend_wakeup_init_kb                            .build/obj_doro67_multi_taylon/common/avr/suspend.o
suspend_wakeup_init_user                          .build/obj_doro67_multi_taylon/common/avr/suspend.o
tap_code                                          .build/obj_doro67_multi_taylon/common/action.o
                                                  .build/obj_doro67_multi_taylon/quantum/process_keycode/process_space_cadet.o
                                                  .build/obj_doro67_multi_taylon/quantum/quantum.o
tap_code16                                        .build/obj_doro67_multi_taylon/quantum/quantum.o
tap_dance_actions                                 .build/obj_doro67_multi_taylon/keyboards/doro67/multi/keymaps/taylon/keymap.o
                                                  .build/obj_doro67_multi_taylon/quantum/process_keycode/process_tap_dance.o
tap_random_base64                                 .build/obj_doro67_multi_taylon/quantum/quantum.o
timer_clear                                       .build/obj_doro67_multi_taylon/common/avr/timer.o
timer_count                                       .build/obj_doro67_multi_taylon/common/avr/timer.o
                                                  .build/obj_doro67_multi_taylon/common/avr/suspend.o
timer_elapsed                                     .build/obj_doro67_multi_taylon/common/avr/timer.o
                                                  .build/obj_doro67_multi_taylon/common/mousekey.o
                                                  .build/obj_doro67_multi_taylon/quantum/process_keycode/process_space_cadet.o
                                                  .build/obj_doro67_multi_taylon/quantum/process_keycode/process_tap_dance.o
                                                  .build/obj_doro67_multi_taylon/quantum/debounce/sym_g.o
timer_elapsed32                                   .build/obj_doro67_multi_taylon/common/avr/timer.o
timer_init                                        .build/obj_doro67_multi_taylon/common/avr/timer.o
                                                  .build/obj_doro67_multi_taylon/common/keyboard.o
timer_read                                        .build/obj_doro67_multi_taylon/common/avr/timer.o
                                                  .build/obj_doro67_multi_taylon/common/mousekey.o
                                                  .build/obj_doro67_multi_taylon/common/keyboard.o
                                                  .build/obj_doro67_multi_taylon/quantum/process_keycode/process_space_cadet.o
                                                  .build/obj_doro67_multi_taylon/quantum/process_keycode/process_tap_dance.o
                                                  .build/obj_doro67_multi_taylon/quantum/debounce/sym_g.o
timer_read32                                      .build/obj_doro67_multi_taylon/common/avr/timer.o
tp_buttons                                        .build/obj_doro67_multi_taylon/common/action.o
unregister_code                                   .build/obj_doro67_multi_taylon/common/action.o
                                                  .build/obj_doro67_multi_taylon/common/action_macro.o
                                                  .build/obj_doro67_multi_taylon/quantum/quantum.o
unregister_code16                                 .build/obj_doro67_multi_taylon/quantum/quantum.o
                                                  .build/obj_doro67_multi_taylon/quantum/process_keycode/process_tap_dance.o
unregister_mods                                   .build/obj_doro67_multi_taylon/common/action.o
                                                  .build/obj_doro67_multi_taylon/quantum/process_keycode/process_space_cadet.o
                                                  .build/obj_doro67_multi_taylon/quantum/quantum.o
unregister_weak_mods                              .build/obj_doro67_multi_taylon/common/action.o
                                                  .build/obj_doro67_multi_taylon/quantum/quantum.o
update_source_layers_cache                        .build/obj_doro67_multi_taylon/common/action_layer.o
                                                  .build/obj_doro67_multi_taylon/quantum/quantum.o
update_tri_layer                                  .build/obj_doro67_multi_taylon/quantum/quantum.o
update_tri_layer_state                            .build/obj_doro67_multi_taylon/quantum/quantum.o
where_to_send                                     .build/obj_doro67_multi_taylon/outputselect.o
                                                  .build/obj_doro67_multi_taylon/lufa.o
xfunc_out                                         .build/obj_doro67_multi_taylon/common/avr/xprintf.o
xitoa                                             .build/obj_doro67_multi_taylon/common/avr/xprintf.o
xputc                                             .build/obj_doro67_multi_taylon/common/avr/xprintf.o
xputs                                             .build/obj_doro67_multi_taylon/common/avr/xprintf.o
