   1               		.file	"eeconfig.c"
   2               	__SP_H__ = 0x3e
   3               	__SP_L__ = 0x3d
   4               	__SREG__ = 0x3f
   5               	__tmp_reg__ = 0
   6               	__zero_reg__ = 1
   7               		.text
   8               	.Ltext0:
   9               		.cfi_sections	.debug_frame
  10               		.section	.text.eeconfig_enable,"ax",@progbits
  11               	.global	eeconfig_enable
  13               	eeconfig_enable:
  14               	.LFB4:
  15               		.file 1 "tmk_core/common/eeconfig.c"
   1:tmk_core/common/eeconfig.c **** #include <stdint.h>
   2:tmk_core/common/eeconfig.c **** #include <stdbool.h>
   3:tmk_core/common/eeconfig.c **** #include "eeprom.h"
   4:tmk_core/common/eeconfig.c **** #include "eeconfig.h"
   5:tmk_core/common/eeconfig.c **** 
   6:tmk_core/common/eeconfig.c **** #ifdef STM32_EEPROM_ENABLE
   7:tmk_core/common/eeconfig.c **** #    include "hal.h"
   8:tmk_core/common/eeconfig.c **** #    include "eeprom_stm32.h"
   9:tmk_core/common/eeconfig.c **** #endif
  10:tmk_core/common/eeconfig.c **** 
  11:tmk_core/common/eeconfig.c **** extern uint32_t default_layer_state;
  12:tmk_core/common/eeconfig.c **** /** \brief eeconfig enable
  13:tmk_core/common/eeconfig.c ****  *
  14:tmk_core/common/eeconfig.c ****  * FIXME: needs doc
  15:tmk_core/common/eeconfig.c ****  */
  16:tmk_core/common/eeconfig.c **** __attribute__((weak)) void eeconfig_init_user(void) {
  17:tmk_core/common/eeconfig.c ****     // Reset user EEPROM value to blank, rather than to a set value
  18:tmk_core/common/eeconfig.c ****     eeconfig_update_user(0);
  19:tmk_core/common/eeconfig.c **** }
  20:tmk_core/common/eeconfig.c **** 
  21:tmk_core/common/eeconfig.c **** __attribute__((weak)) void eeconfig_init_kb(void) {
  22:tmk_core/common/eeconfig.c ****     // Reset Keyboard EEPROM value to blank, rather than to a set value
  23:tmk_core/common/eeconfig.c ****     eeconfig_update_kb(0);
  24:tmk_core/common/eeconfig.c **** 
  25:tmk_core/common/eeconfig.c ****     eeconfig_init_user();
  26:tmk_core/common/eeconfig.c **** }
  27:tmk_core/common/eeconfig.c **** 
  28:tmk_core/common/eeconfig.c **** /*
  29:tmk_core/common/eeconfig.c ****  * FIXME: needs doc
  30:tmk_core/common/eeconfig.c ****  */
  31:tmk_core/common/eeconfig.c **** void eeconfig_init_quantum(void) {
  32:tmk_core/common/eeconfig.c **** #ifdef STM32_EEPROM_ENABLE
  33:tmk_core/common/eeconfig.c ****     EEPROM_Erase();
  34:tmk_core/common/eeconfig.c **** #endif
  35:tmk_core/common/eeconfig.c ****     eeprom_update_word(EECONFIG_MAGIC, EECONFIG_MAGIC_NUMBER);
  36:tmk_core/common/eeconfig.c ****     eeprom_update_byte(EECONFIG_DEBUG, 0);
  37:tmk_core/common/eeconfig.c ****     eeprom_update_byte(EECONFIG_DEFAULT_LAYER, 0);
  38:tmk_core/common/eeconfig.c ****     default_layer_state = 0;
  39:tmk_core/common/eeconfig.c ****     eeprom_update_byte(EECONFIG_KEYMAP_LOWER_BYTE, 0);
  40:tmk_core/common/eeconfig.c ****     eeprom_update_byte(EECONFIG_KEYMAP_UPPER_BYTE, 0);
  41:tmk_core/common/eeconfig.c ****     eeprom_update_byte(EECONFIG_MOUSEKEY_ACCEL, 0);
  42:tmk_core/common/eeconfig.c ****     eeprom_update_byte(EECONFIG_BACKLIGHT, 0);
  43:tmk_core/common/eeconfig.c ****     eeprom_update_byte(EECONFIG_AUDIO, 0xFF);  // On by default
  44:tmk_core/common/eeconfig.c ****     eeprom_update_dword(EECONFIG_RGBLIGHT, 0);
  45:tmk_core/common/eeconfig.c ****     eeprom_update_byte(EECONFIG_STENOMODE, 0);
  46:tmk_core/common/eeconfig.c ****     eeprom_update_dword(EECONFIG_HAPTIC, 0);
  47:tmk_core/common/eeconfig.c ****     eeprom_update_byte(EECONFIG_VELOCIKEY, 0);
  48:tmk_core/common/eeconfig.c ****     eeprom_update_dword(EECONFIG_RGB_MATRIX, 0);
  49:tmk_core/common/eeconfig.c ****     eeprom_update_byte(EECONFIG_RGB_MATRIX_SPEED, 0);
  50:tmk_core/common/eeconfig.c **** 
  51:tmk_core/common/eeconfig.c ****     // TODO: Remove once ARM has a way to configure EECONFIG_HANDEDNESS
  52:tmk_core/common/eeconfig.c ****     //        within the emulated eeprom via dfu-util or another tool
  53:tmk_core/common/eeconfig.c **** #if defined INIT_EE_HANDS_LEFT
  54:tmk_core/common/eeconfig.c ****     #pragma message "Faking EE_HANDS for left hand"
  55:tmk_core/common/eeconfig.c ****     eeprom_update_byte(EECONFIG_HANDEDNESS, 1);
  56:tmk_core/common/eeconfig.c **** #elif defined INIT_EE_HANDS_RIGHT
  57:tmk_core/common/eeconfig.c ****     #pragma message "Faking EE_HANDS for right hand"
  58:tmk_core/common/eeconfig.c ****     eeprom_update_byte(EECONFIG_HANDEDNESS, 0);
  59:tmk_core/common/eeconfig.c **** #endif
  60:tmk_core/common/eeconfig.c **** 
  61:tmk_core/common/eeconfig.c ****     eeconfig_init_kb();
  62:tmk_core/common/eeconfig.c **** }
  63:tmk_core/common/eeconfig.c **** 
  64:tmk_core/common/eeconfig.c **** /** \brief eeconfig initialization
  65:tmk_core/common/eeconfig.c ****  *
  66:tmk_core/common/eeconfig.c ****  * FIXME: needs doc
  67:tmk_core/common/eeconfig.c ****  */
  68:tmk_core/common/eeconfig.c **** void eeconfig_init(void) { eeconfig_init_quantum(); }
  69:tmk_core/common/eeconfig.c **** 
  70:tmk_core/common/eeconfig.c **** /** \brief eeconfig enable
  71:tmk_core/common/eeconfig.c ****  *
  72:tmk_core/common/eeconfig.c ****  * FIXME: needs doc
  73:tmk_core/common/eeconfig.c ****  */
  74:tmk_core/common/eeconfig.c **** void eeconfig_enable(void) { eeprom_update_word(EECONFIG_MAGIC, EECONFIG_MAGIC_NUMBER); }
  16               		.loc 1 74 0
  17               		.cfi_startproc
  18               	/* prologue: function */
  19               	/* frame size = 0 */
  20               	/* stack size = 0 */
  21               	.L__stack_usage = 0
  22               		.loc 1 74 0
  23 0000 6CEE      		ldi r22,lo8(-20)
  24 0002 7EEF      		ldi r23,lo8(-2)
  25 0004 80E0      		ldi r24,0
  26 0006 90E0      		ldi r25,0
  27 0008 0C94 0000 		jmp eeprom_update_word
  28               	.LVL0:
  29               		.cfi_endproc
  30               	.LFE4:
  32               		.section	.text.eeconfig_disable,"ax",@progbits
  33               	.global	eeconfig_disable
  35               	eeconfig_disable:
  36               	.LFB5:
  75:tmk_core/common/eeconfig.c **** 
  76:tmk_core/common/eeconfig.c **** /** \brief eeconfig disable
  77:tmk_core/common/eeconfig.c ****  *
  78:tmk_core/common/eeconfig.c ****  * FIXME: needs doc
  79:tmk_core/common/eeconfig.c ****  */
  80:tmk_core/common/eeconfig.c **** void eeconfig_disable(void) {
  37               		.loc 1 80 0
  38               		.cfi_startproc
  39               	/* prologue: function */
  40               	/* frame size = 0 */
  41               	/* stack size = 0 */
  42               	.L__stack_usage = 0
  81:tmk_core/common/eeconfig.c **** #ifdef STM32_EEPROM_ENABLE
  82:tmk_core/common/eeconfig.c ****     EEPROM_Erase();
  83:tmk_core/common/eeconfig.c **** #endif
  84:tmk_core/common/eeconfig.c ****     eeprom_update_word(EECONFIG_MAGIC, EECONFIG_MAGIC_NUMBER_OFF);
  43               		.loc 1 84 0
  44 0000 6FEF      		ldi r22,lo8(-1)
  45 0002 7FEF      		ldi r23,lo8(-1)
  46 0004 80E0      		ldi r24,0
  47 0006 90E0      		ldi r25,0
  48 0008 0C94 0000 		jmp eeprom_update_word
  49               	.LVL1:
  50               		.cfi_endproc
  51               	.LFE5:
  53               		.section	.text.eeconfig_is_enabled,"ax",@progbits
  54               	.global	eeconfig_is_enabled
  56               	eeconfig_is_enabled:
  57               	.LFB6:
  85:tmk_core/common/eeconfig.c **** }
  86:tmk_core/common/eeconfig.c **** 
  87:tmk_core/common/eeconfig.c **** /** \brief eeconfig is enabled
  88:tmk_core/common/eeconfig.c ****  *
  89:tmk_core/common/eeconfig.c ****  * FIXME: needs doc
  90:tmk_core/common/eeconfig.c ****  */
  91:tmk_core/common/eeconfig.c **** bool eeconfig_is_enabled(void) { return (eeprom_read_word(EECONFIG_MAGIC) == EECONFIG_MAGIC_NUMBER)
  58               		.loc 1 91 0
  59               		.cfi_startproc
  60               	/* prologue: function */
  61               	/* frame size = 0 */
  62               	/* stack size = 0 */
  63               	.L__stack_usage = 0
  64               		.loc 1 91 0
  65 0000 80E0      		ldi r24,0
  66 0002 90E0      		ldi r25,0
  67 0004 0E94 0000 		call eeprom_read_word
  68               	.LVL2:
  69 0008 21E0      		ldi r18,lo8(1)
  70 000a 8C3E      		cpi r24,-20
  71 000c 9E4F      		sbci r25,-2
  72 000e 01F0      		breq .L4
  73 0010 20E0      		ldi r18,0
  74               	.L4:
  75 0012 822F      		mov r24,r18
  76 0014 0895      		ret
  77               		.cfi_endproc
  78               	.LFE6:
  80               		.section	.text.eeconfig_is_disabled,"ax",@progbits
  81               	.global	eeconfig_is_disabled
  83               	eeconfig_is_disabled:
  84               	.LFB7:
  92:tmk_core/common/eeconfig.c **** 
  93:tmk_core/common/eeconfig.c **** /** \brief eeconfig is disabled
  94:tmk_core/common/eeconfig.c ****  *
  95:tmk_core/common/eeconfig.c ****  * FIXME: needs doc
  96:tmk_core/common/eeconfig.c ****  */
  97:tmk_core/common/eeconfig.c **** bool eeconfig_is_disabled(void) { return (eeprom_read_word(EECONFIG_MAGIC) == EECONFIG_MAGIC_NUMBER
  85               		.loc 1 97 0
  86               		.cfi_startproc
  87               	/* prologue: function */
  88               	/* frame size = 0 */
  89               	/* stack size = 0 */
  90               	.L__stack_usage = 0
  91               		.loc 1 97 0
  92 0000 80E0      		ldi r24,0
  93 0002 90E0      		ldi r25,0
  94 0004 0E94 0000 		call eeprom_read_word
  95               	.LVL3:
  96 0008 21E0      		ldi r18,lo8(1)
  97 000a 0196      		adiw r24,1
  98 000c 01F0      		breq .L10
  99 000e 20E0      		ldi r18,0
 100               	.L10:
 101 0010 822F      		mov r24,r18
 102 0012 0895      		ret
 103               		.cfi_endproc
 104               	.LFE7:
 106               		.section	.text.eeconfig_read_debug,"ax",@progbits
 107               	.global	eeconfig_read_debug
 109               	eeconfig_read_debug:
 110               	.LFB8:
  98:tmk_core/common/eeconfig.c **** 
  99:tmk_core/common/eeconfig.c **** /** \brief eeconfig read debug
 100:tmk_core/common/eeconfig.c ****  *
 101:tmk_core/common/eeconfig.c ****  * FIXME: needs doc
 102:tmk_core/common/eeconfig.c ****  */
 103:tmk_core/common/eeconfig.c **** uint8_t eeconfig_read_debug(void) { return eeprom_read_byte(EECONFIG_DEBUG); }
 111               		.loc 1 103 0
 112               		.cfi_startproc
 113               	/* prologue: function */
 114               	/* frame size = 0 */
 115               	/* stack size = 0 */
 116               	.L__stack_usage = 0
 117               		.loc 1 103 0
 118 0000 82E0      		ldi r24,lo8(2)
 119 0002 90E0      		ldi r25,0
 120 0004 0C94 0000 		jmp eeprom_read_byte
 121               	.LVL4:
 122               		.cfi_endproc
 123               	.LFE8:
 125               		.section	.text.eeconfig_update_debug,"ax",@progbits
 126               	.global	eeconfig_update_debug
 128               	eeconfig_update_debug:
 129               	.LFB9:
 104:tmk_core/common/eeconfig.c **** /** \brief eeconfig update debug
 105:tmk_core/common/eeconfig.c ****  *
 106:tmk_core/common/eeconfig.c ****  * FIXME: needs doc
 107:tmk_core/common/eeconfig.c ****  */
 108:tmk_core/common/eeconfig.c **** void eeconfig_update_debug(uint8_t val) { eeprom_update_byte(EECONFIG_DEBUG, val); }
 130               		.loc 1 108 0
 131               		.cfi_startproc
 132               	.LVL5:
 133               	/* prologue: function */
 134               	/* frame size = 0 */
 135               	/* stack size = 0 */
 136               	.L__stack_usage = 0
 137               		.loc 1 108 0
 138 0000 682F      		mov r22,r24
 139 0002 82E0      		ldi r24,lo8(2)
 140 0004 90E0      		ldi r25,0
 141               	.LVL6:
 142 0006 0C94 0000 		jmp eeprom_update_byte
 143               	.LVL7:
 144               		.cfi_endproc
 145               	.LFE9:
 147               		.section	.text.eeconfig_read_default_layer,"ax",@progbits
 148               	.global	eeconfig_read_default_layer
 150               	eeconfig_read_default_layer:
 151               	.LFB10:
 109:tmk_core/common/eeconfig.c **** 
 110:tmk_core/common/eeconfig.c **** /** \brief eeconfig read default layer
 111:tmk_core/common/eeconfig.c ****  *
 112:tmk_core/common/eeconfig.c ****  * FIXME: needs doc
 113:tmk_core/common/eeconfig.c ****  */
 114:tmk_core/common/eeconfig.c **** uint8_t eeconfig_read_default_layer(void) { return eeprom_read_byte(EECONFIG_DEFAULT_LAYER); }
 152               		.loc 1 114 0
 153               		.cfi_startproc
 154               	/* prologue: function */
 155               	/* frame size = 0 */
 156               	/* stack size = 0 */
 157               	.L__stack_usage = 0
 158               		.loc 1 114 0
 159 0000 83E0      		ldi r24,lo8(3)
 160 0002 90E0      		ldi r25,0
 161 0004 0C94 0000 		jmp eeprom_read_byte
 162               	.LVL8:
 163               		.cfi_endproc
 164               	.LFE10:
 166               		.section	.text.eeconfig_update_default_layer,"ax",@progbits
 167               	.global	eeconfig_update_default_layer
 169               	eeconfig_update_default_layer:
 170               	.LFB11:
 115:tmk_core/common/eeconfig.c **** /** \brief eeconfig update default layer
 116:tmk_core/common/eeconfig.c ****  *
 117:tmk_core/common/eeconfig.c ****  * FIXME: needs doc
 118:tmk_core/common/eeconfig.c ****  */
 119:tmk_core/common/eeconfig.c **** void eeconfig_update_default_layer(uint8_t val) { eeprom_update_byte(EECONFIG_DEFAULT_LAYER, val); 
 171               		.loc 1 119 0
 172               		.cfi_startproc
 173               	.LVL9:
 174               	/* prologue: function */
 175               	/* frame size = 0 */
 176               	/* stack size = 0 */
 177               	.L__stack_usage = 0
 178               		.loc 1 119 0
 179 0000 682F      		mov r22,r24
 180 0002 83E0      		ldi r24,lo8(3)
 181 0004 90E0      		ldi r25,0
 182               	.LVL10:
 183 0006 0C94 0000 		jmp eeprom_update_byte
 184               	.LVL11:
 185               		.cfi_endproc
 186               	.LFE11:
 188               		.section	.text.eeconfig_read_keymap,"ax",@progbits
 189               	.global	eeconfig_read_keymap
 191               	eeconfig_read_keymap:
 192               	.LFB12:
 120:tmk_core/common/eeconfig.c **** 
 121:tmk_core/common/eeconfig.c **** /** \brief eeconfig read keymap
 122:tmk_core/common/eeconfig.c ****  *
 123:tmk_core/common/eeconfig.c ****  * FIXME: needs doc
 124:tmk_core/common/eeconfig.c ****  */
 125:tmk_core/common/eeconfig.c **** uint16_t eeconfig_read_keymap(void) { return (eeprom_read_byte(EECONFIG_KEYMAP_LOWER_BYTE) | (eepro
 193               		.loc 1 125 0
 194               		.cfi_startproc
 195 0000 CF93      		push r28
 196               	.LCFI0:
 197               		.cfi_def_cfa_offset 3
 198               		.cfi_offset 28, -2
 199               	/* prologue: function */
 200               	/* frame size = 0 */
 201               	/* stack size = 1 */
 202               	.L__stack_usage = 1
 203               		.loc 1 125 0
 204 0002 84E0      		ldi r24,lo8(4)
 205 0004 90E0      		ldi r25,0
 206 0006 0E94 0000 		call eeprom_read_byte
 207               	.LVL12:
 208 000a C82F      		mov r28,r24
 209 000c 81E2      		ldi r24,lo8(33)
 210 000e 90E0      		ldi r25,0
 211 0010 0E94 0000 		call eeprom_read_byte
 212               	.LVL13:
 213 0014 2C2F      		mov r18,r28
 214 0016 30E0      		ldi r19,0
 215 0018 A901      		movw r20,r18
 216 001a 582B      		or r21,r24
 217 001c CA01      		movw r24,r20
 218               	/* epilogue start */
 219 001e CF91      		pop r28
 220 0020 0895      		ret
 221               		.cfi_endproc
 222               	.LFE12:
 224               		.section	.text.eeconfig_update_keymap,"ax",@progbits
 225               	.global	eeconfig_update_keymap
 227               	eeconfig_update_keymap:
 228               	.LFB13:
 126:tmk_core/common/eeconfig.c **** /** \brief eeconfig update keymap
 127:tmk_core/common/eeconfig.c ****  *
 128:tmk_core/common/eeconfig.c ****  * FIXME: needs doc
 129:tmk_core/common/eeconfig.c ****  */
 130:tmk_core/common/eeconfig.c **** void eeconfig_update_keymap(uint16_t val) {
 229               		.loc 1 130 0
 230               		.cfi_startproc
 231               	.LVL14:
 232 0000 CF93      		push r28
 233               	.LCFI1:
 234               		.cfi_def_cfa_offset 3
 235               		.cfi_offset 28, -2
 236               	/* prologue: function */
 237               	/* frame size = 0 */
 238               	/* stack size = 1 */
 239               	.L__stack_usage = 1
 240 0002 C92F      		mov r28,r25
 131:tmk_core/common/eeconfig.c ****     eeprom_update_byte(EECONFIG_KEYMAP_LOWER_BYTE, val & 0xFF);
 241               		.loc 1 131 0
 242 0004 682F      		mov r22,r24
 243 0006 84E0      		ldi r24,lo8(4)
 244 0008 90E0      		ldi r25,0
 245               	.LVL15:
 246 000a 0E94 0000 		call eeprom_update_byte
 247               	.LVL16:
 132:tmk_core/common/eeconfig.c ****     eeprom_update_byte(EECONFIG_KEYMAP_UPPER_BYTE, (val >> 8) & 0xFF);
 248               		.loc 1 132 0
 249 000e 6C2F      		mov r22,r28
 250 0010 81E2      		ldi r24,lo8(33)
 251 0012 90E0      		ldi r25,0
 252               	/* epilogue start */
 133:tmk_core/common/eeconfig.c **** }
 253               		.loc 1 133 0
 254 0014 CF91      		pop r28
 132:tmk_core/common/eeconfig.c ****     eeprom_update_byte(EECONFIG_KEYMAP_UPPER_BYTE, (val >> 8) & 0xFF);
 255               		.loc 1 132 0
 256 0016 0C94 0000 		jmp eeprom_update_byte
 257               	.LVL17:
 258               		.cfi_endproc
 259               	.LFE13:
 261               		.section	.text.eeconfig_read_backlight,"ax",@progbits
 262               	.global	eeconfig_read_backlight
 264               	eeconfig_read_backlight:
 265               	.LFB14:
 134:tmk_core/common/eeconfig.c **** 
 135:tmk_core/common/eeconfig.c **** /** \brief eeconfig read backlight
 136:tmk_core/common/eeconfig.c ****  *
 137:tmk_core/common/eeconfig.c ****  * FIXME: needs doc
 138:tmk_core/common/eeconfig.c ****  */
 139:tmk_core/common/eeconfig.c **** uint8_t eeconfig_read_backlight(void) { return eeprom_read_byte(EECONFIG_BACKLIGHT); }
 266               		.loc 1 139 0
 267               		.cfi_startproc
 268               	/* prologue: function */
 269               	/* frame size = 0 */
 270               	/* stack size = 0 */
 271               	.L__stack_usage = 0
 272               		.loc 1 139 0
 273 0000 86E0      		ldi r24,lo8(6)
 274 0002 90E0      		ldi r25,0
 275 0004 0C94 0000 		jmp eeprom_read_byte
 276               	.LVL18:
 277               		.cfi_endproc
 278               	.LFE14:
 280               		.section	.text.eeconfig_update_backlight,"ax",@progbits
 281               	.global	eeconfig_update_backlight
 283               	eeconfig_update_backlight:
 284               	.LFB15:
 140:tmk_core/common/eeconfig.c **** /** \brief eeconfig update backlight
 141:tmk_core/common/eeconfig.c ****  *
 142:tmk_core/common/eeconfig.c ****  * FIXME: needs doc
 143:tmk_core/common/eeconfig.c ****  */
 144:tmk_core/common/eeconfig.c **** void eeconfig_update_backlight(uint8_t val) { eeprom_update_byte(EECONFIG_BACKLIGHT, val); }
 285               		.loc 1 144 0
 286               		.cfi_startproc
 287               	.LVL19:
 288               	/* prologue: function */
 289               	/* frame size = 0 */
 290               	/* stack size = 0 */
 291               	.L__stack_usage = 0
 292               		.loc 1 144 0
 293 0000 682F      		mov r22,r24
 294 0002 86E0      		ldi r24,lo8(6)
 295 0004 90E0      		ldi r25,0
 296               	.LVL20:
 297 0006 0C94 0000 		jmp eeprom_update_byte
 298               	.LVL21:
 299               		.cfi_endproc
 300               	.LFE15:
 302               		.section	.text.eeconfig_read_audio,"ax",@progbits
 303               	.global	eeconfig_read_audio
 305               	eeconfig_read_audio:
 306               	.LFB16:
 145:tmk_core/common/eeconfig.c **** 
 146:tmk_core/common/eeconfig.c **** /** \brief eeconfig read audio
 147:tmk_core/common/eeconfig.c ****  *
 148:tmk_core/common/eeconfig.c ****  * FIXME: needs doc
 149:tmk_core/common/eeconfig.c ****  */
 150:tmk_core/common/eeconfig.c **** uint8_t eeconfig_read_audio(void) { return eeprom_read_byte(EECONFIG_AUDIO); }
 307               		.loc 1 150 0
 308               		.cfi_startproc
 309               	/* prologue: function */
 310               	/* frame size = 0 */
 311               	/* stack size = 0 */
 312               	.L__stack_usage = 0
 313               		.loc 1 150 0
 314 0000 87E0      		ldi r24,lo8(7)
 315 0002 90E0      		ldi r25,0
 316 0004 0C94 0000 		jmp eeprom_read_byte
 317               	.LVL22:
 318               		.cfi_endproc
 319               	.LFE16:
 321               		.section	.text.eeconfig_update_audio,"ax",@progbits
 322               	.global	eeconfig_update_audio
 324               	eeconfig_update_audio:
 325               	.LFB17:
 151:tmk_core/common/eeconfig.c **** /** \brief eeconfig update audio
 152:tmk_core/common/eeconfig.c ****  *
 153:tmk_core/common/eeconfig.c ****  * FIXME: needs doc
 154:tmk_core/common/eeconfig.c ****  */
 155:tmk_core/common/eeconfig.c **** void eeconfig_update_audio(uint8_t val) { eeprom_update_byte(EECONFIG_AUDIO, val); }
 326               		.loc 1 155 0
 327               		.cfi_startproc
 328               	.LVL23:
 329               	/* prologue: function */
 330               	/* frame size = 0 */
 331               	/* stack size = 0 */
 332               	.L__stack_usage = 0
 333               		.loc 1 155 0
 334 0000 682F      		mov r22,r24
 335 0002 87E0      		ldi r24,lo8(7)
 336 0004 90E0      		ldi r25,0
 337               	.LVL24:
 338 0006 0C94 0000 		jmp eeprom_update_byte
 339               	.LVL25:
 340               		.cfi_endproc
 341               	.LFE17:
 343               		.section	.text.eeconfig_read_kb,"ax",@progbits
 344               	.global	eeconfig_read_kb
 346               	eeconfig_read_kb:
 347               	.LFB18:
 156:tmk_core/common/eeconfig.c **** 
 157:tmk_core/common/eeconfig.c **** /** \brief eeconfig read kb
 158:tmk_core/common/eeconfig.c ****  *
 159:tmk_core/common/eeconfig.c ****  * FIXME: needs doc
 160:tmk_core/common/eeconfig.c ****  */
 161:tmk_core/common/eeconfig.c **** uint32_t eeconfig_read_kb(void) { return eeprom_read_dword(EECONFIG_KEYBOARD); }
 348               		.loc 1 161 0
 349               		.cfi_startproc
 350               	/* prologue: function */
 351               	/* frame size = 0 */
 352               	/* stack size = 0 */
 353               	.L__stack_usage = 0
 354               		.loc 1 161 0
 355 0000 8FE0      		ldi r24,lo8(15)
 356 0002 90E0      		ldi r25,0
 357 0004 0C94 0000 		jmp eeprom_read_dword
 358               	.LVL26:
 359               		.cfi_endproc
 360               	.LFE18:
 362               		.section	.text.eeconfig_update_kb,"ax",@progbits
 363               	.global	eeconfig_update_kb
 365               	eeconfig_update_kb:
 366               	.LFB19:
 162:tmk_core/common/eeconfig.c **** /** \brief eeconfig update kb
 163:tmk_core/common/eeconfig.c ****  *
 164:tmk_core/common/eeconfig.c ****  * FIXME: needs doc
 165:tmk_core/common/eeconfig.c ****  */
 166:tmk_core/common/eeconfig.c **** void eeconfig_update_kb(uint32_t val) { eeprom_update_dword(EECONFIG_KEYBOARD, val); }
 367               		.loc 1 166 0
 368               		.cfi_startproc
 369               	.LVL27:
 370               	/* prologue: function */
 371               	/* frame size = 0 */
 372               	/* stack size = 0 */
 373               	.L__stack_usage = 0
 374 0000 AB01      		movw r20,r22
 375 0002 BC01      		movw r22,r24
 376               		.loc 1 166 0
 377 0004 8FE0      		ldi r24,lo8(15)
 378 0006 90E0      		ldi r25,0
 379 0008 0C94 0000 		jmp eeprom_update_dword
 380               	.LVL28:
 381               		.cfi_endproc
 382               	.LFE19:
 384               		.section	.text.eeconfig_read_user,"ax",@progbits
 385               	.global	eeconfig_read_user
 387               	eeconfig_read_user:
 388               	.LFB20:
 167:tmk_core/common/eeconfig.c **** 
 168:tmk_core/common/eeconfig.c **** /** \brief eeconfig read user
 169:tmk_core/common/eeconfig.c ****  *
 170:tmk_core/common/eeconfig.c ****  * FIXME: needs doc
 171:tmk_core/common/eeconfig.c ****  */
 172:tmk_core/common/eeconfig.c **** uint32_t eeconfig_read_user(void) { return eeprom_read_dword(EECONFIG_USER); }
 389               		.loc 1 172 0
 390               		.cfi_startproc
 391               	/* prologue: function */
 392               	/* frame size = 0 */
 393               	/* stack size = 0 */
 394               	.L__stack_usage = 0
 395               		.loc 1 172 0
 396 0000 83E1      		ldi r24,lo8(19)
 397 0002 90E0      		ldi r25,0
 398 0004 0C94 0000 		jmp eeprom_read_dword
 399               	.LVL29:
 400               		.cfi_endproc
 401               	.LFE20:
 403               		.section	.text.eeconfig_update_user,"ax",@progbits
 404               	.global	eeconfig_update_user
 406               	eeconfig_update_user:
 407               	.LFB21:
 173:tmk_core/common/eeconfig.c **** /** \brief eeconfig update user
 174:tmk_core/common/eeconfig.c ****  *
 175:tmk_core/common/eeconfig.c ****  * FIXME: needs doc
 176:tmk_core/common/eeconfig.c ****  */
 177:tmk_core/common/eeconfig.c **** void eeconfig_update_user(uint32_t val) { eeprom_update_dword(EECONFIG_USER, val); }
 408               		.loc 1 177 0
 409               		.cfi_startproc
 410               	.LVL30:
 411               	/* prologue: function */
 412               	/* frame size = 0 */
 413               	/* stack size = 0 */
 414               	.L__stack_usage = 0
 415 0000 AB01      		movw r20,r22
 416 0002 BC01      		movw r22,r24
 417               		.loc 1 177 0
 418 0004 83E1      		ldi r24,lo8(19)
 419 0006 90E0      		ldi r25,0
 420 0008 0C94 0000 		jmp eeprom_update_dword
 421               	.LVL31:
 422               		.cfi_endproc
 423               	.LFE21:
 425               		.section	.text.eeconfig_init_user,"ax",@progbits
 426               		.weak	eeconfig_init_user
 428               	eeconfig_init_user:
 429               	.LFB0:
  16:tmk_core/common/eeconfig.c ****     // Reset user EEPROM value to blank, rather than to a set value
 430               		.loc 1 16 0
 431               		.cfi_startproc
 432               	/* prologue: function */
 433               	/* frame size = 0 */
 434               	/* stack size = 0 */
 435               	.L__stack_usage = 0
  18:tmk_core/common/eeconfig.c **** }
 436               		.loc 1 18 0
 437 0000 60E0      		ldi r22,0
 438 0002 70E0      		ldi r23,0
 439 0004 CB01      		movw r24,r22
 440 0006 0C94 0000 		jmp eeconfig_update_user
 441               	.LVL32:
 442               		.cfi_endproc
 443               	.LFE0:
 445               		.section	.text.eeconfig_init_kb,"ax",@progbits
 446               		.weak	eeconfig_init_kb
 448               	eeconfig_init_kb:
 449               	.LFB1:
  21:tmk_core/common/eeconfig.c ****     // Reset Keyboard EEPROM value to blank, rather than to a set value
 450               		.loc 1 21 0
 451               		.cfi_startproc
 452               	/* prologue: function */
 453               	/* frame size = 0 */
 454               	/* stack size = 0 */
 455               	.L__stack_usage = 0
  23:tmk_core/common/eeconfig.c **** 
 456               		.loc 1 23 0
 457 0000 60E0      		ldi r22,0
 458 0002 70E0      		ldi r23,0
 459 0004 CB01      		movw r24,r22
 460 0006 0E94 0000 		call eeconfig_update_kb
 461               	.LVL33:
  25:tmk_core/common/eeconfig.c **** }
 462               		.loc 1 25 0
 463 000a 0C94 0000 		jmp eeconfig_init_user
 464               	.LVL34:
 465               		.cfi_endproc
 466               	.LFE1:
 468               		.section	.text.eeconfig_init_quantum,"ax",@progbits
 469               	.global	eeconfig_init_quantum
 471               	eeconfig_init_quantum:
 472               	.LFB2:
  31:tmk_core/common/eeconfig.c **** #ifdef STM32_EEPROM_ENABLE
 473               		.loc 1 31 0
 474               		.cfi_startproc
 475               	/* prologue: function */
 476               	/* frame size = 0 */
 477               	/* stack size = 0 */
 478               	.L__stack_usage = 0
  35:tmk_core/common/eeconfig.c ****     eeprom_update_byte(EECONFIG_DEBUG, 0);
 479               		.loc 1 35 0
 480 0000 6CEE      		ldi r22,lo8(-20)
 481 0002 7EEF      		ldi r23,lo8(-2)
 482 0004 80E0      		ldi r24,0
 483 0006 90E0      		ldi r25,0
 484 0008 0E94 0000 		call eeprom_update_word
 485               	.LVL35:
  36:tmk_core/common/eeconfig.c ****     eeprom_update_byte(EECONFIG_DEFAULT_LAYER, 0);
 486               		.loc 1 36 0
 487 000c 60E0      		ldi r22,0
 488 000e 82E0      		ldi r24,lo8(2)
 489 0010 90E0      		ldi r25,0
 490 0012 0E94 0000 		call eeprom_update_byte
 491               	.LVL36:
  37:tmk_core/common/eeconfig.c ****     default_layer_state = 0;
 492               		.loc 1 37 0
 493 0016 60E0      		ldi r22,0
 494 0018 83E0      		ldi r24,lo8(3)
 495 001a 90E0      		ldi r25,0
 496 001c 0E94 0000 		call eeprom_update_byte
 497               	.LVL37:
  38:tmk_core/common/eeconfig.c ****     eeprom_update_byte(EECONFIG_KEYMAP_LOWER_BYTE, 0);
 498               		.loc 1 38 0
 499 0020 1092 0000 		sts default_layer_state,__zero_reg__
 500 0024 1092 0000 		sts default_layer_state+1,__zero_reg__
 501 0028 1092 0000 		sts default_layer_state+2,__zero_reg__
 502 002c 1092 0000 		sts default_layer_state+3,__zero_reg__
  39:tmk_core/common/eeconfig.c ****     eeprom_update_byte(EECONFIG_KEYMAP_UPPER_BYTE, 0);
 503               		.loc 1 39 0
 504 0030 60E0      		ldi r22,0
 505 0032 84E0      		ldi r24,lo8(4)
 506 0034 90E0      		ldi r25,0
 507 0036 0E94 0000 		call eeprom_update_byte
 508               	.LVL38:
  40:tmk_core/common/eeconfig.c ****     eeprom_update_byte(EECONFIG_MOUSEKEY_ACCEL, 0);
 509               		.loc 1 40 0
 510 003a 60E0      		ldi r22,0
 511 003c 81E2      		ldi r24,lo8(33)
 512 003e 90E0      		ldi r25,0
 513 0040 0E94 0000 		call eeprom_update_byte
 514               	.LVL39:
  41:tmk_core/common/eeconfig.c ****     eeprom_update_byte(EECONFIG_BACKLIGHT, 0);
 515               		.loc 1 41 0
 516 0044 60E0      		ldi r22,0
 517 0046 85E0      		ldi r24,lo8(5)
 518 0048 90E0      		ldi r25,0
 519 004a 0E94 0000 		call eeprom_update_byte
 520               	.LVL40:
  42:tmk_core/common/eeconfig.c ****     eeprom_update_byte(EECONFIG_AUDIO, 0xFF);  // On by default
 521               		.loc 1 42 0
 522 004e 60E0      		ldi r22,0
 523 0050 86E0      		ldi r24,lo8(6)
 524 0052 90E0      		ldi r25,0
 525 0054 0E94 0000 		call eeprom_update_byte
 526               	.LVL41:
  43:tmk_core/common/eeconfig.c ****     eeprom_update_dword(EECONFIG_RGBLIGHT, 0);
 527               		.loc 1 43 0
 528 0058 6FEF      		ldi r22,lo8(-1)
 529 005a 87E0      		ldi r24,lo8(7)
 530 005c 90E0      		ldi r25,0
 531 005e 0E94 0000 		call eeprom_update_byte
 532               	.LVL42:
  44:tmk_core/common/eeconfig.c ****     eeprom_update_byte(EECONFIG_STENOMODE, 0);
 533               		.loc 1 44 0
 534 0062 40E0      		ldi r20,0
 535 0064 50E0      		ldi r21,0
 536 0066 BA01      		movw r22,r20
 537 0068 88E0      		ldi r24,lo8(8)
 538 006a 90E0      		ldi r25,0
 539 006c 0E94 0000 		call eeprom_update_dword
 540               	.LVL43:
  45:tmk_core/common/eeconfig.c ****     eeprom_update_dword(EECONFIG_HAPTIC, 0);
 541               		.loc 1 45 0
 542 0070 60E0      		ldi r22,0
 543 0072 8DE0      		ldi r24,lo8(13)
 544 0074 90E0      		ldi r25,0
 545 0076 0E94 0000 		call eeprom_update_byte
 546               	.LVL44:
  46:tmk_core/common/eeconfig.c ****     eeprom_update_byte(EECONFIG_VELOCIKEY, 0);
 547               		.loc 1 46 0
 548 007a 40E0      		ldi r20,0
 549 007c 50E0      		ldi r21,0
 550 007e BA01      		movw r22,r20
 551 0080 88E1      		ldi r24,lo8(24)
 552 0082 90E0      		ldi r25,0
 553 0084 0E94 0000 		call eeprom_update_dword
 554               	.LVL45:
  47:tmk_core/common/eeconfig.c ****     eeprom_update_dword(EECONFIG_RGB_MATRIX, 0);
 555               		.loc 1 47 0
 556 0088 60E0      		ldi r22,0
 557 008a 87E1      		ldi r24,lo8(23)
 558 008c 90E0      		ldi r25,0
 559 008e 0E94 0000 		call eeprom_update_byte
 560               	.LVL46:
  48:tmk_core/common/eeconfig.c ****     eeprom_update_byte(EECONFIG_RGB_MATRIX_SPEED, 0);
 561               		.loc 1 48 0
 562 0092 40E0      		ldi r20,0
 563 0094 50E0      		ldi r21,0
 564 0096 BA01      		movw r22,r20
 565 0098 8CE1      		ldi r24,lo8(28)
 566 009a 90E0      		ldi r25,0
 567 009c 0E94 0000 		call eeprom_update_dword
 568               	.LVL47:
  49:tmk_core/common/eeconfig.c **** 
 569               		.loc 1 49 0
 570 00a0 60E0      		ldi r22,0
 571 00a2 80E2      		ldi r24,lo8(32)
 572 00a4 90E0      		ldi r25,0
 573 00a6 0E94 0000 		call eeprom_update_byte
 574               	.LVL48:
  61:tmk_core/common/eeconfig.c **** }
 575               		.loc 1 61 0
 576 00aa 0C94 0000 		jmp eeconfig_init_kb
 577               	.LVL49:
 578               		.cfi_endproc
 579               	.LFE2:
 581               		.section	.text.eeconfig_init,"ax",@progbits
 582               	.global	eeconfig_init
 584               	eeconfig_init:
 585               	.LFB3:
  68:tmk_core/common/eeconfig.c **** 
 586               		.loc 1 68 0
 587               		.cfi_startproc
 588               	/* prologue: function */
 589               	/* frame size = 0 */
 590               	/* stack size = 0 */
 591               	.L__stack_usage = 0
  68:tmk_core/common/eeconfig.c **** 
 592               		.loc 1 68 0
 593 0000 0C94 0000 		jmp eeconfig_init_quantum
 594               	.LVL50:
 595               		.cfi_endproc
 596               	.LFE3:
 598               		.section	.text.eeconfig_read_haptic,"ax",@progbits
 599               	.global	eeconfig_read_haptic
 601               	eeconfig_read_haptic:
 602               	.LFB22:
 178:tmk_core/common/eeconfig.c **** 
 179:tmk_core/common/eeconfig.c **** /** \brief eeconfig read haptic
 180:tmk_core/common/eeconfig.c ****  *
 181:tmk_core/common/eeconfig.c ****  * FIXME: needs doc
 182:tmk_core/common/eeconfig.c ****  */
 183:tmk_core/common/eeconfig.c **** uint32_t eeconfig_read_haptic(void) { return eeprom_read_dword(EECONFIG_HAPTIC); }
 603               		.loc 1 183 0
 604               		.cfi_startproc
 605               	/* prologue: function */
 606               	/* frame size = 0 */
 607               	/* stack size = 0 */
 608               	.L__stack_usage = 0
 609               		.loc 1 183 0
 610 0000 88E1      		ldi r24,lo8(24)
 611 0002 90E0      		ldi r25,0
 612 0004 0C94 0000 		jmp eeprom_read_dword
 613               	.LVL51:
 614               		.cfi_endproc
 615               	.LFE22:
 617               		.section	.text.eeconfig_update_haptic,"ax",@progbits
 618               	.global	eeconfig_update_haptic
 620               	eeconfig_update_haptic:
 621               	.LFB23:
 184:tmk_core/common/eeconfig.c **** /** \brief eeconfig update haptic
 185:tmk_core/common/eeconfig.c ****  *
 186:tmk_core/common/eeconfig.c ****  * FIXME: needs doc
 187:tmk_core/common/eeconfig.c ****  */
 188:tmk_core/common/eeconfig.c **** void eeconfig_update_haptic(uint32_t val) { eeprom_update_dword(EECONFIG_HAPTIC, val); }
 622               		.loc 1 188 0
 623               		.cfi_startproc
 624               	.LVL52:
 625               	/* prologue: function */
 626               	/* frame size = 0 */
 627               	/* stack size = 0 */
 628               	.L__stack_usage = 0
 629 0000 AB01      		movw r20,r22
 630 0002 BC01      		movw r22,r24
 631               		.loc 1 188 0
 632 0004 88E1      		ldi r24,lo8(24)
 633 0006 90E0      		ldi r25,0
 634 0008 0C94 0000 		jmp eeprom_update_dword
 635               	.LVL53:
 636               		.cfi_endproc
 637               	.LFE23:
 639               		.section	.text.eeconfig_read_handedness,"ax",@progbits
 640               	.global	eeconfig_read_handedness
 642               	eeconfig_read_handedness:
 643               	.LFB24:
 189:tmk_core/common/eeconfig.c **** 
 190:tmk_core/common/eeconfig.c **** /** \brief eeconfig read split handedness
 191:tmk_core/common/eeconfig.c ****  *
 192:tmk_core/common/eeconfig.c ****  * FIXME: needs doc
 193:tmk_core/common/eeconfig.c ****  */
 194:tmk_core/common/eeconfig.c **** bool eeconfig_read_handedness(void) { return !!eeprom_read_byte(EECONFIG_HANDEDNESS); }
 644               		.loc 1 194 0
 645               		.cfi_startproc
 646               	/* prologue: function */
 647               	/* frame size = 0 */
 648               	/* stack size = 0 */
 649               	.L__stack_usage = 0
 650               		.loc 1 194 0
 651 0000 8EE0      		ldi r24,lo8(14)
 652 0002 90E0      		ldi r25,0
 653 0004 0E94 0000 		call eeprom_read_byte
 654               	.LVL54:
 655 0008 91E0      		ldi r25,lo8(1)
 656 000a 8111      		cpse r24,__zero_reg__
 657 000c 00C0      		rjmp .L35
 658 000e 90E0      		ldi r25,0
 659               	.L35:
 660 0010 892F      		mov r24,r25
 661 0012 0895      		ret
 662               		.cfi_endproc
 663               	.LFE24:
 665               		.section	.text.eeconfig_update_handedness,"ax",@progbits
 666               	.global	eeconfig_update_handedness
 668               	eeconfig_update_handedness:
 669               	.LFB25:
 195:tmk_core/common/eeconfig.c **** /** \brief eeconfig update split handedness
 196:tmk_core/common/eeconfig.c ****  *
 197:tmk_core/common/eeconfig.c ****  * FIXME: needs doc
 198:tmk_core/common/eeconfig.c ****  */
 199:tmk_core/common/eeconfig.c **** void eeconfig_update_handedness(bool val) { eeprom_update_byte(EECONFIG_HANDEDNESS, !!val); }
 670               		.loc 1 199 0
 671               		.cfi_startproc
 672               	.LVL55:
 673               	/* prologue: function */
 674               	/* frame size = 0 */
 675               	/* stack size = 0 */
 676               	.L__stack_usage = 0
 677               		.loc 1 199 0
 678 0000 682F      		mov r22,r24
 679 0002 8EE0      		ldi r24,lo8(14)
 680 0004 90E0      		ldi r25,0
 681               	.LVL56:
 682 0006 0C94 0000 		jmp eeprom_update_byte
 683               	.LVL57:
 684               		.cfi_endproc
 685               	.LFE25:
 687               		.text
 688               	.Letext0:
 689               		.file 2 "/usr/lib/avr/include/stdint.h"
 690               		.file 3 "/usr/lib/avr/include/avr/eeprom.h"
DEFINED SYMBOLS
                            *ABS*:0000000000000000 eeconfig.c
     /tmp/ccG9iio8.s:2      *ABS*:000000000000003e __SP_H__
     /tmp/ccG9iio8.s:3      *ABS*:000000000000003d __SP_L__
     /tmp/ccG9iio8.s:4      *ABS*:000000000000003f __SREG__
     /tmp/ccG9iio8.s:5      *ABS*:0000000000000000 __tmp_reg__
     /tmp/ccG9iio8.s:6      *ABS*:0000000000000001 __zero_reg__
     /tmp/ccG9iio8.s:13     .text.eeconfig_enable:0000000000000000 eeconfig_enable
     /tmp/ccG9iio8.s:35     .text.eeconfig_disable:0000000000000000 eeconfig_disable
     /tmp/ccG9iio8.s:56     .text.eeconfig_is_enabled:0000000000000000 eeconfig_is_enabled
     /tmp/ccG9iio8.s:83     .text.eeconfig_is_disabled:0000000000000000 eeconfig_is_disabled
     /tmp/ccG9iio8.s:109    .text.eeconfig_read_debug:0000000000000000 eeconfig_read_debug
     /tmp/ccG9iio8.s:128    .text.eeconfig_update_debug:0000000000000000 eeconfig_update_debug
     /tmp/ccG9iio8.s:150    .text.eeconfig_read_default_layer:0000000000000000 eeconfig_read_default_layer
     /tmp/ccG9iio8.s:169    .text.eeconfig_update_default_layer:0000000000000000 eeconfig_update_default_layer
     /tmp/ccG9iio8.s:191    .text.eeconfig_read_keymap:0000000000000000 eeconfig_read_keymap
     /tmp/ccG9iio8.s:227    .text.eeconfig_update_keymap:0000000000000000 eeconfig_update_keymap
     /tmp/ccG9iio8.s:264    .text.eeconfig_read_backlight:0000000000000000 eeconfig_read_backlight
     /tmp/ccG9iio8.s:283    .text.eeconfig_update_backlight:0000000000000000 eeconfig_update_backlight
     /tmp/ccG9iio8.s:305    .text.eeconfig_read_audio:0000000000000000 eeconfig_read_audio
     /tmp/ccG9iio8.s:324    .text.eeconfig_update_audio:0000000000000000 eeconfig_update_audio
     /tmp/ccG9iio8.s:346    .text.eeconfig_read_kb:0000000000000000 eeconfig_read_kb
     /tmp/ccG9iio8.s:365    .text.eeconfig_update_kb:0000000000000000 eeconfig_update_kb
     /tmp/ccG9iio8.s:387    .text.eeconfig_read_user:0000000000000000 eeconfig_read_user
     /tmp/ccG9iio8.s:406    .text.eeconfig_update_user:0000000000000000 eeconfig_update_user
     /tmp/ccG9iio8.s:428    .text.eeconfig_init_user:0000000000000000 eeconfig_init_user
     /tmp/ccG9iio8.s:448    .text.eeconfig_init_kb:0000000000000000 eeconfig_init_kb
     /tmp/ccG9iio8.s:471    .text.eeconfig_init_quantum:0000000000000000 eeconfig_init_quantum
     /tmp/ccG9iio8.s:584    .text.eeconfig_init:0000000000000000 eeconfig_init
     /tmp/ccG9iio8.s:601    .text.eeconfig_read_haptic:0000000000000000 eeconfig_read_haptic
     /tmp/ccG9iio8.s:620    .text.eeconfig_update_haptic:0000000000000000 eeconfig_update_haptic
     /tmp/ccG9iio8.s:642    .text.eeconfig_read_handedness:0000000000000000 eeconfig_read_handedness
     /tmp/ccG9iio8.s:668    .text.eeconfig_update_handedness:0000000000000000 eeconfig_update_handedness

UNDEFINED SYMBOLS
eeprom_update_word
eeprom_read_word
eeprom_read_byte
eeprom_update_byte
eeprom_read_dword
eeprom_update_dword
default_layer_state
